
sq.exe:     file format pei-x86-64


Disassembly of section .text:

0000000140001000 <__mingw_invalidParameterHandler>:
   140001000:	c3                   	ret
   140001001:	0f 1f 40 00          	nop    DWORD PTR [rax+0x0]
   140001005:	66 66 2e 0f 1f 84 00 	data16 cs nop WORD PTR [rax+rax*1+0x0]
   14000100c:	00 00 00 00 

0000000140001010 <__tmainCRTStartup>:
   140001010:	41 57                	push   r15
   140001012:	41 56                	push   r14
   140001014:	41 55                	push   r13
   140001016:	41 54                	push   r12
   140001018:	55                   	push   rbp
   140001019:	57                   	push   rdi
   14000101a:	56                   	push   rsi
   14000101b:	53                   	push   rbx
   14000101c:	48 83 ec 58          	sub    rsp,0x58
   140001020:	b8 30 00 00 00       	mov    eax,0x30
   140001025:	65 67 48 8b 00       	mov    rax,QWORD PTR gs:[eax]
   14000102a:	48 8b 70 08          	mov    rsi,QWORD PTR [rax+0x8]
   14000102e:	48 8b 1d 3b 34 00 00 	mov    rbx,QWORD PTR [rip+0x343b]        # 140004470 <.refptr.__native_startup_lock>
   140001035:	48 8b 3d 44 72 00 00 	mov    rdi,QWORD PTR [rip+0x7244]        # 140008280 <__imp_Sleep>
   14000103c:	eb 12                	jmp    140001050 <__tmainCRTStartup+0x40>
   14000103e:	66 90                	xchg   ax,ax
   140001040:	48 39 c6             	cmp    rsi,rax
   140001043:	0f 84 b7 00 00 00    	je     140001100 <__tmainCRTStartup+0xf0>
   140001049:	b9 e8 03 00 00       	mov    ecx,0x3e8
   14000104e:	ff d7                	call   rdi
   140001050:	31 c0                	xor    eax,eax
   140001052:	f0 48 0f b1 33       	lock cmpxchg QWORD PTR [rbx],rsi
   140001057:	75 e7                	jne    140001040 <__tmainCRTStartup+0x30>
   140001059:	45 31 f6             	xor    r14d,r14d
   14000105c:	48 8b 2d 1d 34 00 00 	mov    rbp,QWORD PTR [rip+0x341d]        # 140004480 <.refptr.__native_startup_state>
   140001063:	8b 45 00             	mov    eax,DWORD PTR [rbp+0x0]
   140001066:	83 f8 01             	cmp    eax,0x1
   140001069:	0f 84 59 03 00 00    	je     1400013c8 <__tmainCRTStartup+0x3b8>
   14000106f:	8b 45 00             	mov    eax,DWORD PTR [rbp+0x0]
   140001072:	85 c0                	test   eax,eax
   140001074:	0f 84 96 00 00 00    	je     140001110 <__tmainCRTStartup+0x100>
   14000107a:	c7 05 80 5f 00 00 01 	mov    DWORD PTR [rip+0x5f80],0x1        # 140007004 <has_cctor>
   140001081:	00 00 00 
   140001084:	45 85 f6             	test   r14d,r14d
   140001087:	0f 84 9b 02 00 00    	je     140001328 <__tmainCRTStartup+0x318>
   14000108d:	48 8b 05 5c 33 00 00 	mov    rax,QWORD PTR [rip+0x335c]        # 1400043f0 <.refptr.__dyn_tls_init_callback>
   140001094:	48 8b 00             	mov    rax,QWORD PTR [rax]
   140001097:	48 85 c0             	test   rax,rax
   14000109a:	74 0c                	je     1400010a8 <__tmainCRTStartup+0x98>
   14000109c:	45 31 c0             	xor    r8d,r8d
   14000109f:	ba 02 00 00 00       	mov    edx,0x2
   1400010a4:	31 c9                	xor    ecx,ecx
   1400010a6:	ff d0                	call   rax
   1400010a8:	e8 d3 15 00 00       	call   140002680 <__p___initenv>
   1400010ad:	4c 8b 05 5c 5f 00 00 	mov    r8,QWORD PTR [rip+0x5f5c]        # 140007010 <envp>
   1400010b4:	8b 0d 66 5f 00 00    	mov    ecx,DWORD PTR [rip+0x5f66]        # 140007020 <argc>
   1400010ba:	4c 89 00             	mov    QWORD PTR [rax],r8
   1400010bd:	48 8b 15 54 5f 00 00 	mov    rdx,QWORD PTR [rip+0x5f54]        # 140007018 <argv>
   1400010c4:	e8 a7 17 00 00       	call   140002870 <main>
   1400010c9:	8b 0d 39 5f 00 00    	mov    ecx,DWORD PTR [rip+0x5f39]        # 140007008 <managedapp>
   1400010cf:	85 c9                	test   ecx,ecx
   1400010d1:	0f 84 fb 02 00 00    	je     1400013d2 <__tmainCRTStartup+0x3c2>
   1400010d7:	8b 15 27 5f 00 00    	mov    edx,DWORD PTR [rip+0x5f27]        # 140007004 <has_cctor>
   1400010dd:	85 d2                	test   edx,edx
   1400010df:	0f 84 2b 02 00 00    	je     140001310 <__tmainCRTStartup+0x300>
   1400010e5:	48 83 c4 58          	add    rsp,0x58
   1400010e9:	5b                   	pop    rbx
   1400010ea:	5e                   	pop    rsi
   1400010eb:	5f                   	pop    rdi
   1400010ec:	5d                   	pop    rbp
   1400010ed:	41 5c                	pop    r12
   1400010ef:	41 5d                	pop    r13
   1400010f1:	41 5e                	pop    r14
   1400010f3:	41 5f                	pop    r15
   1400010f5:	c3                   	ret
   1400010f6:	66 2e 0f 1f 84 00 00 	cs nop WORD PTR [rax+rax*1+0x0]
   1400010fd:	00 00 00 
   140001100:	41 be 01 00 00 00    	mov    r14d,0x1
   140001106:	e9 51 ff ff ff       	jmp    14000105c <__tmainCRTStartup+0x4c>
   14000110b:	0f 1f 44 00 00       	nop    DWORD PTR [rax+rax*1+0x0]
   140001110:	c7 45 00 01 00 00 00 	mov    DWORD PTR [rbp+0x0],0x1
   140001117:	e8 e4 07 00 00       	call   140001900 <_pei386_runtime_relocator>
   14000111c:	48 8d 0d bd 0b 00 00 	lea    rcx,[rip+0xbbd]        # 140001ce0 <_gnu_exception_handler>
   140001123:	ff 15 4f 71 00 00    	call   QWORD PTR [rip+0x714f]        # 140008278 <__imp_SetUnhandledExceptionFilter>
   140001129:	48 8b 15 30 33 00 00 	mov    rdx,QWORD PTR [rip+0x3330]        # 140004460 <.refptr.__mingw_oldexcpt_handler>
   140001130:	48 8d 0d c9 fe ff ff 	lea    rcx,[rip+0xfffffffffffffec9]        # 140001000 <__mingw_invalidParameterHandler>
   140001137:	48 89 02             	mov    QWORD PTR [rdx],rax
   14000113a:	e8 61 16 00 00       	call   1400027a0 <_set_invalid_parameter_handler>
   14000113f:	e8 fc 0f 00 00       	call   140002140 <_fpreset>
   140001144:	48 8b 05 e5 32 00 00 	mov    rax,QWORD PTR [rip+0x32e5]        # 140004430 <.refptr.__mingw_initltsdrot_force>
   14000114b:	31 c9                	xor    ecx,ecx
   14000114d:	c7 00 01 00 00 00    	mov    DWORD PTR [rax],0x1
   140001153:	48 8b 05 e6 32 00 00 	mov    rax,QWORD PTR [rip+0x32e6]        # 140004440 <.refptr.__mingw_initltsdyn_force>
   14000115a:	c7 00 01 00 00 00    	mov    DWORD PTR [rax],0x1
   140001160:	48 8b 05 e9 32 00 00 	mov    rax,QWORD PTR [rip+0x32e9]        # 140004450 <.refptr.__mingw_initltssuo_force>
   140001167:	c7 00 01 00 00 00    	mov    DWORD PTR [rax],0x1
   14000116d:	48 8b 05 4c 32 00 00 	mov    rax,QWORD PTR [rip+0x324c]        # 1400043c0 <.refptr.__ImageBase>
   140001174:	66 81 38 4d 5a       	cmp    WORD PTR [rax],0x5a4d
   140001179:	75 45                	jne    1400011c0 <__tmainCRTStartup+0x1b0>
   14000117b:	48 63 50 3c          	movsxd rdx,DWORD PTR [rax+0x3c]
   14000117f:	48 01 d0             	add    rax,rdx
   140001182:	81 38 50 45 00 00    	cmp    DWORD PTR [rax],0x4550
   140001188:	75 36                	jne    1400011c0 <__tmainCRTStartup+0x1b0>
   14000118a:	0f b7 50 18          	movzx  edx,WORD PTR [rax+0x18]
   14000118e:	66 81 fa 0b 01       	cmp    dx,0x10b
   140001193:	0f 84 11 02 00 00    	je     1400013aa <__tmainCRTStartup+0x39a>
   140001199:	66 81 fa 0b 02       	cmp    dx,0x20b
   14000119e:	75 20                	jne    1400011c0 <__tmainCRTStartup+0x1b0>
   1400011a0:	83 b8 84 00 00 00 0e 	cmp    DWORD PTR [rax+0x84],0xe
   1400011a7:	76 17                	jbe    1400011c0 <__tmainCRTStartup+0x1b0>
   1400011a9:	44 8b 88 f8 00 00 00 	mov    r9d,DWORD PTR [rax+0xf8]
   1400011b0:	31 c9                	xor    ecx,ecx
   1400011b2:	45 85 c9             	test   r9d,r9d
   1400011b5:	0f 95 c1             	setne  cl
   1400011b8:	0f 1f 84 00 00 00 00 	nop    DWORD PTR [rax+rax*1+0x0]
   1400011bf:	00 
   1400011c0:	48 8b 05 59 32 00 00 	mov    rax,QWORD PTR [rip+0x3259]        # 140004420 <.refptr.__mingw_app_type>
   1400011c7:	89 0d 3b 5e 00 00    	mov    DWORD PTR [rip+0x5e3b],ecx        # 140007008 <managedapp>
   1400011cd:	44 8b 00             	mov    r8d,DWORD PTR [rax]
   1400011d0:	45 85 c0             	test   r8d,r8d
   1400011d3:	0f 85 5f 01 00 00    	jne    140001338 <__tmainCRTStartup+0x328>
   1400011d9:	b9 01 00 00 00       	mov    ecx,0x1
   1400011de:	e8 a5 15 00 00       	call   140002788 <__set_app_type>
   1400011e3:	e8 58 15 00 00       	call   140002740 <__p__fmode>
   1400011e8:	48 8b 15 01 33 00 00 	mov    rdx,QWORD PTR [rip+0x3301]        # 1400044f0 <.refptr._fmode>
   1400011ef:	8b 12                	mov    edx,DWORD PTR [rdx]
   1400011f1:	89 10                	mov    DWORD PTR [rax],edx
   1400011f3:	e8 40 15 00 00       	call   140002738 <__p__commode>
   1400011f8:	48 8b 15 d1 32 00 00 	mov    rdx,QWORD PTR [rip+0x32d1]        # 1400044d0 <.refptr._commode>
   1400011ff:	8b 12                	mov    edx,DWORD PTR [rdx]
   140001201:	89 10                	mov    DWORD PTR [rax],edx
   140001203:	e8 68 03 00 00       	call   140001570 <_setargv>
   140001208:	85 c0                	test   eax,eax
   14000120a:	0f 88 f1 00 00 00    	js     140001301 <__tmainCRTStartup+0x2f1>
   140001210:	48 8b 05 89 31 00 00 	mov    rax,QWORD PTR [rip+0x3189]        # 1400043a0 <.refptr._MINGW_INSTALL_DEBUG_MATHERR>
   140001217:	83 38 01             	cmp    DWORD PTR [rax],0x1
   14000121a:	0f 84 79 01 00 00    	je     140001399 <__tmainCRTStartup+0x389>
   140001220:	48 8b 05 d9 31 00 00 	mov    rax,QWORD PTR [rip+0x31d9]        # 140004400 <.refptr.__globallocalestatus>
   140001227:	83 38 ff             	cmp    DWORD PTR [rax],0xffffffff
   14000122a:	0f 84 5a 01 00 00    	je     14000138a <__tmainCRTStartup+0x37a>
   140001230:	48 8b 15 89 32 00 00 	mov    rdx,QWORD PTR [rip+0x3289]        # 1400044c0 <.refptr.__xi_z>
   140001237:	48 8b 0d 72 32 00 00 	mov    rcx,QWORD PTR [rip+0x3272]        # 1400044b0 <.refptr.__xi_a>
   14000123e:	e8 55 15 00 00       	call   140002798 <_initterm_e>
   140001243:	85 c0                	test   eax,eax
   140001245:	0f 85 35 01 00 00    	jne    140001380 <__tmainCRTStartup+0x370>
   14000124b:	48 8b 05 ce 32 00 00 	mov    rax,QWORD PTR [rip+0x32ce]        # 140004520 <.refptr._newmode>
   140001252:	4c 8d 05 b7 5d 00 00 	lea    r8,[rip+0x5db7]        # 140007010 <envp>
   140001259:	48 8d 15 b8 5d 00 00 	lea    rdx,[rip+0x5db8]        # 140007018 <argv>
   140001260:	48 8d 0d b9 5d 00 00 	lea    rcx,[rip+0x5db9]        # 140007020 <argc>
   140001267:	8b 00                	mov    eax,DWORD PTR [rax]
   140001269:	89 44 24 4c          	mov    DWORD PTR [rsp+0x4c],eax
   14000126d:	48 8b 05 6c 32 00 00 	mov    rax,QWORD PTR [rip+0x326c]        # 1400044e0 <.refptr._dowildcard>
   140001274:	44 8b 08             	mov    r9d,DWORD PTR [rax]
   140001277:	48 8d 44 24 4c       	lea    rax,[rsp+0x4c]
   14000127c:	48 89 44 24 20       	mov    QWORD PTR [rsp+0x20],rax
   140001281:	e8 3a 14 00 00       	call   1400026c0 <__getmainargs>
   140001286:	85 c0                	test   eax,eax
   140001288:	78 77                	js     140001301 <__tmainCRTStartup+0x2f1>
   14000128a:	4c 63 25 8f 5d 00 00 	movsxd r12,DWORD PTR [rip+0x5d8f]        # 140007020 <argc>
   140001291:	41 8d 4c 24 01       	lea    ecx,[r12+0x1]
   140001296:	48 63 c9             	movsxd rcx,ecx
   140001299:	48 c1 e1 03          	shl    rcx,0x3
   14000129d:	e8 66 15 00 00       	call   140002808 <malloc>
   1400012a2:	49 89 c5             	mov    r13,rax
   1400012a5:	48 85 c0             	test   rax,rax
   1400012a8:	74 57                	je     140001301 <__tmainCRTStartup+0x2f1>
   1400012aa:	45 85 e4             	test   r12d,r12d
   1400012ad:	0f 8e 99 00 00 00    	jle    14000134c <__tmainCRTStartup+0x33c>
   1400012b3:	4c 8b 3d 5e 5d 00 00 	mov    r15,QWORD PTR [rip+0x5d5e]        # 140007018 <argv>
   1400012ba:	be 01 00 00 00       	mov    esi,0x1
   1400012bf:	eb 20                	jmp    1400012e1 <__tmainCRTStartup+0x2d1>
   1400012c1:	0f 1f 80 00 00 00 00 	nop    DWORD PTR [rax+0x0]
   1400012c8:	49 8b 54 f7 f8       	mov    rdx,QWORD PTR [r15+rsi*8-0x8]
   1400012cd:	49 89 f8             	mov    r8,rdi
   1400012d0:	48 89 c1             	mov    rcx,rax
   1400012d3:	e8 f0 14 00 00       	call   1400027c8 <memcpy>
   1400012d8:	49 39 f4             	cmp    r12,rsi
   1400012db:	74 6a                	je     140001347 <__tmainCRTStartup+0x337>
   1400012dd:	48 83 c6 01          	add    rsi,0x1
   1400012e1:	49 8b 4c f7 f8       	mov    rcx,QWORD PTR [r15+rsi*8-0x8]
   1400012e6:	e8 35 14 00 00       	call   140002720 <strlen>
   1400012eb:	48 8d 78 01          	lea    rdi,[rax+0x1]
   1400012ef:	48 89 f9             	mov    rcx,rdi
   1400012f2:	e8 11 15 00 00       	call   140002808 <malloc>
   1400012f7:	49 89 44 f5 f8       	mov    QWORD PTR [r13+rsi*8-0x8],rax
   1400012fc:	48 85 c0             	test   rax,rax
   1400012ff:	75 c7                	jne    1400012c8 <__tmainCRTStartup+0x2b8>
   140001301:	b9 08 00 00 00       	mov    ecx,0x8
   140001306:	e8 85 13 00 00       	call   140002690 <_amsg_exit>
   14000130b:	0f 1f 44 00 00       	nop    DWORD PTR [rax+rax*1+0x0]
   140001310:	89 44 24 3c          	mov    DWORD PTR [rsp+0x3c],eax
   140001314:	e8 47 14 00 00       	call   140002760 <_cexit>
   140001319:	8b 44 24 3c          	mov    eax,DWORD PTR [rsp+0x3c]
   14000131d:	e9 c3 fd ff ff       	jmp    1400010e5 <__tmainCRTStartup+0xd5>
   140001322:	66 0f 1f 44 00 00    	nop    WORD PTR [rax+rax*1+0x0]
   140001328:	31 c0                	xor    eax,eax
   14000132a:	48 87 03             	xchg   QWORD PTR [rbx],rax
   14000132d:	e9 5b fd ff ff       	jmp    14000108d <__tmainCRTStartup+0x7d>
   140001332:	66 0f 1f 44 00 00    	nop    WORD PTR [rax+rax*1+0x0]
   140001338:	b9 02 00 00 00       	mov    ecx,0x2
   14000133d:	e8 46 14 00 00       	call   140002788 <__set_app_type>
   140001342:	e9 9c fe ff ff       	jmp    1400011e3 <__tmainCRTStartup+0x1d3>
   140001347:	4b 8d 44 e5 00       	lea    rax,[r13+r12*8+0x0]
   14000134c:	48 c7 00 00 00 00 00 	mov    QWORD PTR [rax],0x0
   140001353:	48 8b 15 46 31 00 00 	mov    rdx,QWORD PTR [rip+0x3146]        # 1400044a0 <.refptr.__xc_z>
   14000135a:	48 8b 0d 2f 31 00 00 	mov    rcx,QWORD PTR [rip+0x312f]        # 140004490 <.refptr.__xc_a>
   140001361:	4c 89 2d b0 5c 00 00 	mov    QWORD PTR [rip+0x5cb0],r13        # 140007018 <argv>
   140001368:	e8 23 14 00 00       	call   140002790 <_initterm>
   14000136d:	e8 de 01 00 00       	call   140001550 <__main>
   140001372:	c7 45 00 02 00 00 00 	mov    DWORD PTR [rbp+0x0],0x2
   140001379:	e9 06 fd ff ff       	jmp    140001084 <__tmainCRTStartup+0x74>
   14000137e:	66 90                	xchg   ax,ax
   140001380:	b8 ff 00 00 00       	mov    eax,0xff
   140001385:	e9 5b fd ff ff       	jmp    1400010e5 <__tmainCRTStartup+0xd5>
   14000138a:	b9 ff ff ff ff       	mov    ecx,0xffffffff
   14000138f:	e8 4c 14 00 00       	call   1400027e0 <_configthreadlocale>
   140001394:	e9 97 fe ff ff       	jmp    140001230 <__tmainCRTStartup+0x220>
   140001399:	48 8d 0d 90 02 00 00 	lea    rcx,[rip+0x290]        # 140001630 <_matherr>
   1400013a0:	e8 2b 09 00 00       	call   140001cd0 <__mingw_setusermatherr>
   1400013a5:	e9 76 fe ff ff       	jmp    140001220 <__tmainCRTStartup+0x210>
   1400013aa:	83 78 74 0e          	cmp    DWORD PTR [rax+0x74],0xe
   1400013ae:	0f 86 0c fe ff ff    	jbe    1400011c0 <__tmainCRTStartup+0x1b0>
   1400013b4:	44 8b 90 e8 00 00 00 	mov    r10d,DWORD PTR [rax+0xe8]
   1400013bb:	31 c9                	xor    ecx,ecx
   1400013bd:	45 85 d2             	test   r10d,r10d
   1400013c0:	0f 95 c1             	setne  cl
   1400013c3:	e9 f8 fd ff ff       	jmp    1400011c0 <__tmainCRTStartup+0x1b0>
   1400013c8:	b9 1f 00 00 00       	mov    ecx,0x1f
   1400013cd:	e8 be 12 00 00       	call   140002690 <_amsg_exit>
   1400013d2:	89 c1                	mov    ecx,eax
   1400013d4:	e8 d7 13 00 00       	call   1400027b0 <exit>
   1400013d9:	90                   	nop
   1400013da:	66 0f 1f 44 00 00    	nop    WORD PTR [rax+rax*1+0x0]

00000001400013e0 <WinMainCRTStartup>:
   1400013e0:	48 83 ec 28          	sub    rsp,0x28

00000001400013e4 <.l_startw>:
   1400013e4:	48 8b 05 35 30 00 00 	mov    rax,QWORD PTR [rip+0x3035]        # 140004420 <.refptr.__mingw_app_type>
   1400013eb:	c7 00 01 00 00 00    	mov    DWORD PTR [rax],0x1
   1400013f1:	e8 1a fc ff ff       	call   140001010 <__tmainCRTStartup>
   1400013f6:	90                   	nop

00000001400013f7 <.l_endw>:
   1400013f7:	90                   	nop
   1400013f8:	48 83 c4 28          	add    rsp,0x28
   1400013fc:	c3                   	ret
   1400013fd:	0f 1f 00             	nop    DWORD PTR [rax]

0000000140001400 <mainCRTStartup>:
   140001400:	48 83 ec 28          	sub    rsp,0x28

0000000140001404 <.l_start>:
   140001404:	48 8b 05 15 30 00 00 	mov    rax,QWORD PTR [rip+0x3015]        # 140004420 <.refptr.__mingw_app_type>
   14000140b:	c7 00 00 00 00 00    	mov    DWORD PTR [rax],0x0
   140001411:	e8 fa fb ff ff       	call   140001010 <__tmainCRTStartup>
   140001416:	90                   	nop

0000000140001417 <.l_end>:
   140001417:	90                   	nop
   140001418:	48 83 c4 28          	add    rsp,0x28
   14000141c:	c3                   	ret
   14000141d:	0f 1f 00             	nop    DWORD PTR [rax]

0000000140001420 <atexit>:
   140001420:	e9 4b 13 00 00       	jmp    140002770 <_crt_atexit>
   140001425:	90                   	nop
   140001426:	90                   	nop
   140001427:	90                   	nop
   140001428:	90                   	nop
   140001429:	90                   	nop
   14000142a:	90                   	nop
   14000142b:	90                   	nop
   14000142c:	90                   	nop
   14000142d:	90                   	nop
   14000142e:	90                   	nop
   14000142f:	90                   	nop

0000000140001430 <__gcc_register_frame>:
   140001430:	48 8d 0d 09 00 00 00 	lea    rcx,[rip+0x9]        # 140001440 <__gcc_deregister_frame>
   140001437:	e9 e4 ff ff ff       	jmp    140001420 <atexit>
   14000143c:	0f 1f 40 00          	nop    DWORD PTR [rax+0x0]

0000000140001440 <__gcc_deregister_frame>:
   140001440:	c3                   	ret
   140001441:	90                   	nop
   140001442:	90                   	nop
   140001443:	90                   	nop
   140001444:	90                   	nop
   140001445:	90                   	nop
   140001446:	90                   	nop
   140001447:	90                   	nop
   140001448:	90                   	nop
   140001449:	90                   	nop
   14000144a:	90                   	nop
   14000144b:	90                   	nop
   14000144c:	90                   	nop
   14000144d:	90                   	nop
   14000144e:	90                   	nop
   14000144f:	90                   	nop

0000000140001450 <square_and_round>:
   140001450:	f3 0f 5a c0          	cvtss2sd xmm0,xmm0
   140001454:	f2 0f 59 c0          	mulsd  xmm0,xmm0
   140001458:	66 0f 2f 05 c0 2b 00 	comisd xmm0,QWORD PTR [rip+0x2bc0]        # 140004020 <.rdata+0x20>
   14000145f:	00 
   140001460:	73 0e                	jae    140001470 <square_and_round+0x20>
   140001462:	e9 71 13 00 00       	jmp    1400027d8 <lround>
   140001467:	66 0f 1f 84 00 00 00 	nop    WORD PTR [rax+rax*1+0x0]
   14000146e:	00 00 
   140001470:	b8 ff ff ff 7f       	mov    eax,0x7fffffff
   140001475:	c3                   	ret
   140001476:	90                   	nop
   140001477:	90                   	nop
   140001478:	90                   	nop
   140001479:	90                   	nop
   14000147a:	90                   	nop
   14000147b:	90                   	nop
   14000147c:	90                   	nop
   14000147d:	90                   	nop
   14000147e:	90                   	nop
   14000147f:	90                   	nop

0000000140001480 <__do_global_dtors>:
   140001480:	48 83 ec 28          	sub    rsp,0x28
   140001484:	48 8b 05 75 1b 00 00 	mov    rax,QWORD PTR [rip+0x1b75]        # 140003000 <__data_start__>
   14000148b:	48 8b 00             	mov    rax,QWORD PTR [rax]
   14000148e:	48 85 c0             	test   rax,rax
   140001491:	74 2a                	je     1400014bd <__do_global_dtors+0x3d>
   140001493:	66 90                	xchg   ax,ax
   140001495:	66 66 2e 0f 1f 84 00 	data16 cs nop WORD PTR [rax+rax*1+0x0]
   14000149c:	00 00 00 00 
   1400014a0:	ff d0                	call   rax
   1400014a2:	48 8b 05 57 1b 00 00 	mov    rax,QWORD PTR [rip+0x1b57]        # 140003000 <__data_start__>
   1400014a9:	48 8d 50 08          	lea    rdx,[rax+0x8]
   1400014ad:	48 8b 40 08          	mov    rax,QWORD PTR [rax+0x8]
   1400014b1:	48 89 15 48 1b 00 00 	mov    QWORD PTR [rip+0x1b48],rdx        # 140003000 <__data_start__>
   1400014b8:	48 85 c0             	test   rax,rax
   1400014bb:	75 e3                	jne    1400014a0 <__do_global_dtors+0x20>
   1400014bd:	48 83 c4 28          	add    rsp,0x28
   1400014c1:	c3                   	ret
   1400014c2:	0f 1f 00             	nop    DWORD PTR [rax]
   1400014c5:	66 66 2e 0f 1f 84 00 	data16 cs nop WORD PTR [rax+rax*1+0x0]
   1400014cc:	00 00 00 00 

00000001400014d0 <__do_global_ctors>:
   1400014d0:	56                   	push   rsi
   1400014d1:	53                   	push   rbx
   1400014d2:	48 83 ec 28          	sub    rsp,0x28
   1400014d6:	48 8b 15 d3 2e 00 00 	mov    rdx,QWORD PTR [rip+0x2ed3]        # 1400043b0 <.refptr.__CTOR_LIST__>
   1400014dd:	48 8b 02             	mov    rax,QWORD PTR [rdx]
   1400014e0:	89 c1                	mov    ecx,eax
   1400014e2:	83 f8 ff             	cmp    eax,0xffffffff
   1400014e5:	74 39                	je     140001520 <__do_global_ctors+0x50>
   1400014e7:	85 c9                	test   ecx,ecx
   1400014e9:	74 20                	je     14000150b <__do_global_ctors+0x3b>
   1400014eb:	89 c8                	mov    eax,ecx
   1400014ed:	83 e9 01             	sub    ecx,0x1
   1400014f0:	48 8d 1c c2          	lea    rbx,[rdx+rax*8]
   1400014f4:	48 29 c8             	sub    rax,rcx
   1400014f7:	48 8d 74 c2 f8       	lea    rsi,[rdx+rax*8-0x8]
   1400014fc:	0f 1f 40 00          	nop    DWORD PTR [rax+0x0]
   140001500:	ff 13                	call   QWORD PTR [rbx]
   140001502:	48 83 eb 08          	sub    rbx,0x8
   140001506:	48 39 f3             	cmp    rbx,rsi
   140001509:	75 f5                	jne    140001500 <__do_global_ctors+0x30>
   14000150b:	48 8d 0d 6e ff ff ff 	lea    rcx,[rip+0xffffffffffffff6e]        # 140001480 <__do_global_dtors>
   140001512:	48 83 c4 28          	add    rsp,0x28
   140001516:	5b                   	pop    rbx
   140001517:	5e                   	pop    rsi
   140001518:	e9 03 ff ff ff       	jmp    140001420 <atexit>
   14000151d:	0f 1f 00             	nop    DWORD PTR [rax]
   140001520:	31 c0                	xor    eax,eax
   140001522:	0f 1f 00             	nop    DWORD PTR [rax]
   140001525:	66 66 2e 0f 1f 84 00 	data16 cs nop WORD PTR [rax+rax*1+0x0]
   14000152c:	00 00 00 00 
   140001530:	44 8d 40 01          	lea    r8d,[rax+0x1]
   140001534:	89 c1                	mov    ecx,eax
   140001536:	4c 89 c0             	mov    rax,r8
   140001539:	4a 83 3c c2 00       	cmp    QWORD PTR [rdx+r8*8],0x0
   14000153e:	75 f0                	jne    140001530 <__do_global_ctors+0x60>
   140001540:	eb a5                	jmp    1400014e7 <__do_global_ctors+0x17>
   140001542:	0f 1f 00             	nop    DWORD PTR [rax]
   140001545:	66 66 2e 0f 1f 84 00 	data16 cs nop WORD PTR [rax+rax*1+0x0]
   14000154c:	00 00 00 00 

0000000140001550 <__main>:
   140001550:	8b 05 da 5a 00 00    	mov    eax,DWORD PTR [rip+0x5ada]        # 140007030 <initialized>
   140001556:	85 c0                	test   eax,eax
   140001558:	74 06                	je     140001560 <__main+0x10>
   14000155a:	c3                   	ret
   14000155b:	0f 1f 44 00 00       	nop    DWORD PTR [rax+rax*1+0x0]
   140001560:	c7 05 c6 5a 00 00 01 	mov    DWORD PTR [rip+0x5ac6],0x1        # 140007030 <initialized>
   140001567:	00 00 00 
   14000156a:	e9 61 ff ff ff       	jmp    1400014d0 <__do_global_ctors>
   14000156f:	90                   	nop

0000000140001570 <_setargv>:
   140001570:	31 c0                	xor    eax,eax
   140001572:	c3                   	ret
   140001573:	90                   	nop
   140001574:	90                   	nop
   140001575:	90                   	nop
   140001576:	90                   	nop
   140001577:	90                   	nop
   140001578:	90                   	nop
   140001579:	90                   	nop
   14000157a:	90                   	nop
   14000157b:	90                   	nop
   14000157c:	90                   	nop
   14000157d:	90                   	nop
   14000157e:	90                   	nop
   14000157f:	90                   	nop

0000000140001580 <__dyn_tls_dtor>:
   140001580:	83 fa 03             	cmp    edx,0x3
   140001583:	74 0b                	je     140001590 <__dyn_tls_dtor+0x10>
   140001585:	85 d2                	test   edx,edx
   140001587:	74 07                	je     140001590 <__dyn_tls_dtor+0x10>
   140001589:	c3                   	ret
   14000158a:	66 0f 1f 44 00 00    	nop    WORD PTR [rax+rax*1+0x0]
   140001590:	e9 9b 0a 00 00       	jmp    140002030 <__mingw_TLScallback>
   140001595:	66 66 2e 0f 1f 84 00 	data16 cs nop WORD PTR [rax+rax*1+0x0]
   14000159c:	00 00 00 00 

00000001400015a0 <__dyn_tls_init>:
   1400015a0:	56                   	push   rsi
   1400015a1:	53                   	push   rbx
   1400015a2:	48 83 ec 28          	sub    rsp,0x28
   1400015a6:	48 8b 05 e3 2d 00 00 	mov    rax,QWORD PTR [rip+0x2de3]        # 140004390 <.refptr._CRT_MT>
   1400015ad:	83 38 02             	cmp    DWORD PTR [rax],0x2
   1400015b0:	74 06                	je     1400015b8 <__dyn_tls_init+0x18>
   1400015b2:	c7 00 02 00 00 00    	mov    DWORD PTR [rax],0x2
   1400015b8:	83 fa 02             	cmp    edx,0x2
   1400015bb:	74 13                	je     1400015d0 <__dyn_tls_init+0x30>
   1400015bd:	83 fa 01             	cmp    edx,0x1
   1400015c0:	74 4e                	je     140001610 <__dyn_tls_init+0x70>
   1400015c2:	48 83 c4 28          	add    rsp,0x28
   1400015c6:	5b                   	pop    rbx
   1400015c7:	5e                   	pop    rsi
   1400015c8:	c3                   	ret
   1400015c9:	0f 1f 80 00 00 00 00 	nop    DWORD PTR [rax+0x0]
   1400015d0:	48 8d 1d 29 36 00 00 	lea    rbx,[rip+0x3629]        # 140004c00 <__xd_z>
   1400015d7:	48 8d 35 22 36 00 00 	lea    rsi,[rip+0x3622]        # 140004c00 <__xd_z>
   1400015de:	48 39 f3             	cmp    rbx,rsi
   1400015e1:	74 df                	je     1400015c2 <__dyn_tls_init+0x22>
   1400015e3:	66 90                	xchg   ax,ax
   1400015e5:	66 66 2e 0f 1f 84 00 	data16 cs nop WORD PTR [rax+rax*1+0x0]
   1400015ec:	00 00 00 00 
   1400015f0:	48 8b 03             	mov    rax,QWORD PTR [rbx]
   1400015f3:	48 85 c0             	test   rax,rax
   1400015f6:	74 02                	je     1400015fa <__dyn_tls_init+0x5a>
   1400015f8:	ff d0                	call   rax
   1400015fa:	48 83 c3 08          	add    rbx,0x8
   1400015fe:	48 39 f3             	cmp    rbx,rsi
   140001601:	75 ed                	jne    1400015f0 <__dyn_tls_init+0x50>
   140001603:	48 83 c4 28          	add    rsp,0x28
   140001607:	5b                   	pop    rbx
   140001608:	5e                   	pop    rsi
   140001609:	c3                   	ret
   14000160a:	66 0f 1f 44 00 00    	nop    WORD PTR [rax+rax*1+0x0]
   140001610:	48 83 c4 28          	add    rsp,0x28
   140001614:	5b                   	pop    rbx
   140001615:	5e                   	pop    rsi
   140001616:	e9 15 0a 00 00       	jmp    140002030 <__mingw_TLScallback>
   14000161b:	0f 1f 44 00 00       	nop    DWORD PTR [rax+rax*1+0x0]

0000000140001620 <__tlregdtor>:
   140001620:	31 c0                	xor    eax,eax
   140001622:	c3                   	ret
   140001623:	90                   	nop
   140001624:	90                   	nop
   140001625:	90                   	nop
   140001626:	90                   	nop
   140001627:	90                   	nop
   140001628:	90                   	nop
   140001629:	90                   	nop
   14000162a:	90                   	nop
   14000162b:	90                   	nop
   14000162c:	90                   	nop
   14000162d:	90                   	nop
   14000162e:	90                   	nop
   14000162f:	90                   	nop

0000000140001630 <_matherr>:
   140001630:	56                   	push   rsi
   140001631:	53                   	push   rbx
   140001632:	48 83 ec 78          	sub    rsp,0x78
   140001636:	0f 11 74 24 40       	movups XMMWORD PTR [rsp+0x40],xmm6
   14000163b:	0f 11 7c 24 50       	movups XMMWORD PTR [rsp+0x50],xmm7
   140001640:	44 0f 11 44 24 60    	movups XMMWORD PTR [rsp+0x60],xmm8
   140001646:	83 39 06             	cmp    DWORD PTR [rcx],0x6
   140001649:	0f 87 cd 00 00 00    	ja     14000171c <_matherr+0xec>
   14000164f:	8b 01                	mov    eax,DWORD PTR [rcx]
   140001651:	48 8d 15 6c 2b 00 00 	lea    rdx,[rip+0x2b6c]        # 1400041c4 <.rdata+0x124>
   140001658:	48 63 04 82          	movsxd rax,DWORD PTR [rdx+rax*4]
   14000165c:	48 01 d0             	add    rax,rdx
   14000165f:	ff e0                	jmp    rax
   140001661:	0f 1f 80 00 00 00 00 	nop    DWORD PTR [rax+0x0]
   140001668:	48 8d 1d 50 2a 00 00 	lea    rbx,[rip+0x2a50]        # 1400040bf <.rdata+0x1f>
   14000166f:	f2 44 0f 10 41 20    	movsd  xmm8,QWORD PTR [rcx+0x20]
   140001675:	f2 0f 10 79 18       	movsd  xmm7,QWORD PTR [rcx+0x18]
   14000167a:	f2 0f 10 71 10       	movsd  xmm6,QWORD PTR [rcx+0x10]
   14000167f:	48 8b 71 08          	mov    rsi,QWORD PTR [rcx+0x8]
   140001683:	b9 02 00 00 00       	mov    ecx,0x2
   140001688:	e8 a3 10 00 00       	call   140002730 <__acrt_iob_func>
   14000168d:	f2 44 0f 11 44 24 30 	movsd  QWORD PTR [rsp+0x30],xmm8
   140001694:	49 89 d8             	mov    r8,rbx
   140001697:	48 8d 15 fa 2a 00 00 	lea    rdx,[rip+0x2afa]        # 140004198 <.rdata+0xf8>
   14000169e:	f2 0f 11 7c 24 28    	movsd  QWORD PTR [rsp+0x28],xmm7
   1400016a4:	49 89 f1             	mov    r9,rsi
   1400016a7:	48 89 c1             	mov    rcx,rax
   1400016aa:	f2 0f 11 74 24 20    	movsd  QWORD PTR [rsp+0x20],xmm6
   1400016b0:	e8 6b 0f 00 00       	call   140002620 <fprintf>
   1400016b5:	90                   	nop
   1400016b6:	0f 10 74 24 40       	movups xmm6,XMMWORD PTR [rsp+0x40]
   1400016bb:	0f 10 7c 24 50       	movups xmm7,XMMWORD PTR [rsp+0x50]
   1400016c0:	31 c0                	xor    eax,eax
   1400016c2:	44 0f 10 44 24 60    	movups xmm8,XMMWORD PTR [rsp+0x60]
   1400016c8:	48 83 c4 78          	add    rsp,0x78
   1400016cc:	5b                   	pop    rbx
   1400016cd:	5e                   	pop    rsi
   1400016ce:	c3                   	ret
   1400016cf:	90                   	nop
   1400016d0:	48 8d 1d c9 29 00 00 	lea    rbx,[rip+0x29c9]        # 1400040a0 <.rdata>
   1400016d7:	eb 96                	jmp    14000166f <_matherr+0x3f>
   1400016d9:	0f 1f 80 00 00 00 00 	nop    DWORD PTR [rax+0x0]
   1400016e0:	48 8d 1d 19 2a 00 00 	lea    rbx,[rip+0x2a19]        # 140004100 <.rdata+0x60>
   1400016e7:	eb 86                	jmp    14000166f <_matherr+0x3f>
   1400016e9:	0f 1f 80 00 00 00 00 	nop    DWORD PTR [rax+0x0]
   1400016f0:	48 8d 1d e9 29 00 00 	lea    rbx,[rip+0x29e9]        # 1400040e0 <.rdata+0x40>
   1400016f7:	e9 73 ff ff ff       	jmp    14000166f <_matherr+0x3f>
   1400016fc:	0f 1f 40 00          	nop    DWORD PTR [rax+0x0]
   140001700:	48 8d 1d 49 2a 00 00 	lea    rbx,[rip+0x2a49]        # 140004150 <.rdata+0xb0>
   140001707:	e9 63 ff ff ff       	jmp    14000166f <_matherr+0x3f>
   14000170c:	0f 1f 40 00          	nop    DWORD PTR [rax+0x0]
   140001710:	48 8d 1d 11 2a 00 00 	lea    rbx,[rip+0x2a11]        # 140004128 <.rdata+0x88>
   140001717:	e9 53 ff ff ff       	jmp    14000166f <_matherr+0x3f>
   14000171c:	48 8d 1d 63 2a 00 00 	lea    rbx,[rip+0x2a63]        # 140004186 <.rdata+0xe6>
   140001723:	e9 47 ff ff ff       	jmp    14000166f <_matherr+0x3f>
   140001728:	90                   	nop
   140001729:	90                   	nop
   14000172a:	90                   	nop
   14000172b:	90                   	nop
   14000172c:	90                   	nop
   14000172d:	90                   	nop
   14000172e:	90                   	nop
   14000172f:	90                   	nop

0000000140001730 <__report_error>:
   140001730:	56                   	push   rsi
   140001731:	53                   	push   rbx
   140001732:	48 83 ec 38          	sub    rsp,0x38
   140001736:	48 89 cb             	mov    rbx,rcx
   140001739:	48 8d 44 24 58       	lea    rax,[rsp+0x58]
   14000173e:	b9 02 00 00 00       	mov    ecx,0x2
   140001743:	4c 89 44 24 60       	mov    QWORD PTR [rsp+0x60],r8
   140001748:	4c 89 4c 24 68       	mov    QWORD PTR [rsp+0x68],r9
   14000174d:	48 89 54 24 58       	mov    QWORD PTR [rsp+0x58],rdx
   140001752:	48 89 44 24 28       	mov    QWORD PTR [rsp+0x28],rax
   140001757:	e8 d4 0f 00 00       	call   140002730 <__acrt_iob_func>
   14000175c:	48 8d 15 7d 2a 00 00 	lea    rdx,[rip+0x2a7d]        # 1400041e0 <.rdata>
   140001763:	48 89 c1             	mov    rcx,rax
   140001766:	e8 b5 0e 00 00       	call   140002620 <fprintf>
   14000176b:	48 8b 74 24 28       	mov    rsi,QWORD PTR [rsp+0x28]
   140001770:	b9 02 00 00 00       	mov    ecx,0x2
   140001775:	e8 b6 0f 00 00       	call   140002730 <__acrt_iob_func>
   14000177a:	48 89 da             	mov    rdx,rbx
   14000177d:	49 89 f0             	mov    r8,rsi
   140001780:	48 89 c1             	mov    rcx,rax
   140001783:	e8 f8 0d 00 00       	call   140002580 <vfprintf>
   140001788:	e8 1b 10 00 00       	call   1400027a8 <abort>
   14000178d:	90                   	nop
   14000178e:	66 90                	xchg   ax,ax

0000000140001790 <mark_section_writable>:
   140001790:	57                   	push   rdi
   140001791:	56                   	push   rsi
   140001792:	53                   	push   rbx
   140001793:	48 83 ec 50          	sub    rsp,0x50
   140001797:	48 63 35 06 59 00 00 	movsxd rsi,DWORD PTR [rip+0x5906]        # 1400070a4 <maxSections>
   14000179e:	48 89 cb             	mov    rbx,rcx
   1400017a1:	85 f6                	test   esi,esi
   1400017a3:	0f 8e 17 01 00 00    	jle    1400018c0 <mark_section_writable+0x130>
   1400017a9:	48 8b 05 f8 58 00 00 	mov    rax,QWORD PTR [rip+0x58f8]        # 1400070a8 <the_secs>
   1400017b0:	45 31 c9             	xor    r9d,r9d
   1400017b3:	48 83 c0 18          	add    rax,0x18
   1400017b7:	66 0f 1f 84 00 00 00 	nop    WORD PTR [rax+rax*1+0x0]
   1400017be:	00 00 
   1400017c0:	4c 8b 00             	mov    r8,QWORD PTR [rax]
   1400017c3:	4c 39 c3             	cmp    rbx,r8
   1400017c6:	72 13                	jb     1400017db <mark_section_writable+0x4b>
   1400017c8:	48 8b 50 08          	mov    rdx,QWORD PTR [rax+0x8]
   1400017cc:	8b 52 08             	mov    edx,DWORD PTR [rdx+0x8]
   1400017cf:	49 01 d0             	add    r8,rdx
   1400017d2:	4c 39 c3             	cmp    rbx,r8
   1400017d5:	0f 82 8a 00 00 00    	jb     140001865 <mark_section_writable+0xd5>
   1400017db:	41 83 c1 01          	add    r9d,0x1
   1400017df:	48 83 c0 28          	add    rax,0x28
   1400017e3:	41 39 f1             	cmp    r9d,esi
   1400017e6:	75 d8                	jne    1400017c0 <mark_section_writable+0x30>
   1400017e8:	48 89 d9             	mov    rcx,rbx
   1400017eb:	e8 80 0a 00 00       	call   140002270 <__mingw_GetSectionForAddress>
   1400017f0:	48 89 c7             	mov    rdi,rax
   1400017f3:	48 85 c0             	test   rax,rax
   1400017f6:	0f 84 e6 00 00 00    	je     1400018e2 <mark_section_writable+0x152>
   1400017fc:	48 8b 05 a5 58 00 00 	mov    rax,QWORD PTR [rip+0x58a5]        # 1400070a8 <the_secs>
   140001803:	48 8d 1c b6          	lea    rbx,[rsi+rsi*4]
   140001807:	48 c1 e3 03          	shl    rbx,0x3
   14000180b:	48 01 d8             	add    rax,rbx
   14000180e:	48 89 78 20          	mov    QWORD PTR [rax+0x20],rdi
   140001812:	c7 00 00 00 00 00    	mov    DWORD PTR [rax],0x0
   140001818:	e8 93 0b 00 00       	call   1400023b0 <_GetPEImageBase>
   14000181d:	8b 57 0c             	mov    edx,DWORD PTR [rdi+0xc]
   140001820:	41 b8 30 00 00 00    	mov    r8d,0x30
   140001826:	48 8d 0c 10          	lea    rcx,[rax+rdx*1]
   14000182a:	48 8b 05 77 58 00 00 	mov    rax,QWORD PTR [rip+0x5877]        # 1400070a8 <the_secs>
   140001831:	48 8d 54 24 20       	lea    rdx,[rsp+0x20]
   140001836:	48 89 4c 18 18       	mov    QWORD PTR [rax+rbx*1+0x18],rcx
   14000183b:	ff 15 57 6a 00 00    	call   QWORD PTR [rip+0x6a57]        # 140008298 <__imp_VirtualQuery>
   140001841:	48 85 c0             	test   rax,rax
   140001844:	0f 84 7d 00 00 00    	je     1400018c7 <mark_section_writable+0x137>
   14000184a:	8b 44 24 44          	mov    eax,DWORD PTR [rsp+0x44]
   14000184e:	8d 50 fc             	lea    edx,[rax-0x4]
   140001851:	83 e2 fb             	and    edx,0xfffffffb
   140001854:	74 08                	je     14000185e <mark_section_writable+0xce>
   140001856:	8d 50 c0             	lea    edx,[rax-0x40]
   140001859:	83 e2 bf             	and    edx,0xffffffbf
   14000185c:	75 12                	jne    140001870 <mark_section_writable+0xe0>
   14000185e:	83 05 3f 58 00 00 01 	add    DWORD PTR [rip+0x583f],0x1        # 1400070a4 <maxSections>
   140001865:	48 83 c4 50          	add    rsp,0x50
   140001869:	5b                   	pop    rbx
   14000186a:	5e                   	pop    rsi
   14000186b:	5f                   	pop    rdi
   14000186c:	c3                   	ret
   14000186d:	0f 1f 00             	nop    DWORD PTR [rax]
   140001870:	83 f8 02             	cmp    eax,0x2
   140001873:	48 8b 4c 24 20       	mov    rcx,QWORD PTR [rsp+0x20]
   140001878:	48 8b 54 24 38       	mov    rdx,QWORD PTR [rsp+0x38]
   14000187d:	41 b8 40 00 00 00    	mov    r8d,0x40
   140001883:	b8 04 00 00 00       	mov    eax,0x4
   140001888:	44 0f 44 c0          	cmove  r8d,eax
   14000188c:	48 03 1d 15 58 00 00 	add    rbx,QWORD PTR [rip+0x5815]        # 1400070a8 <the_secs>
   140001893:	48 89 4b 08          	mov    QWORD PTR [rbx+0x8],rcx
   140001897:	49 89 d9             	mov    r9,rbx
   14000189a:	48 89 53 10          	mov    QWORD PTR [rbx+0x10],rdx
   14000189e:	ff 15 ec 69 00 00    	call   QWORD PTR [rip+0x69ec]        # 140008290 <__imp_VirtualProtect>
   1400018a4:	85 c0                	test   eax,eax
   1400018a6:	75 b6                	jne    14000185e <mark_section_writable+0xce>
   1400018a8:	ff 15 b2 69 00 00    	call   QWORD PTR [rip+0x69b2]        # 140008260 <__imp_GetLastError>
   1400018ae:	48 8d 0d a3 29 00 00 	lea    rcx,[rip+0x29a3]        # 140004258 <.rdata+0x78>
   1400018b5:	89 c2                	mov    edx,eax
   1400018b7:	e8 74 fe ff ff       	call   140001730 <__report_error>
   1400018bc:	0f 1f 40 00          	nop    DWORD PTR [rax+0x0]
   1400018c0:	31 f6                	xor    esi,esi
   1400018c2:	e9 21 ff ff ff       	jmp    1400017e8 <mark_section_writable+0x58>
   1400018c7:	48 8b 05 da 57 00 00 	mov    rax,QWORD PTR [rip+0x57da]        # 1400070a8 <the_secs>
   1400018ce:	8b 57 08             	mov    edx,DWORD PTR [rdi+0x8]
   1400018d1:	48 8d 0d 48 29 00 00 	lea    rcx,[rip+0x2948]        # 140004220 <.rdata+0x40>
   1400018d8:	4c 8b 44 18 18       	mov    r8,QWORD PTR [rax+rbx*1+0x18]
   1400018dd:	e8 4e fe ff ff       	call   140001730 <__report_error>
   1400018e2:	48 89 da             	mov    rdx,rbx
   1400018e5:	48 8d 0d 14 29 00 00 	lea    rcx,[rip+0x2914]        # 140004200 <.rdata+0x20>
   1400018ec:	e8 3f fe ff ff       	call   140001730 <__report_error>
   1400018f1:	90                   	nop
   1400018f2:	0f 1f 00             	nop    DWORD PTR [rax]
   1400018f5:	66 66 2e 0f 1f 84 00 	data16 cs nop WORD PTR [rax+rax*1+0x0]
   1400018fc:	00 00 00 00 

0000000140001900 <_pei386_runtime_relocator>:
   140001900:	55                   	push   rbp
   140001901:	41 57                	push   r15
   140001903:	41 56                	push   r14
   140001905:	41 55                	push   r13
   140001907:	41 54                	push   r12
   140001909:	57                   	push   rdi
   14000190a:	56                   	push   rsi
   14000190b:	53                   	push   rbx
   14000190c:	48 83 ec 48          	sub    rsp,0x48
   140001910:	48 8d 6c 24 40       	lea    rbp,[rsp+0x40]
   140001915:	8b 35 85 57 00 00    	mov    esi,DWORD PTR [rip+0x5785]        # 1400070a0 <was_init.0>
   14000191b:	85 f6                	test   esi,esi
   14000191d:	74 11                	je     140001930 <_pei386_runtime_relocator+0x30>
   14000191f:	48 8d 65 08          	lea    rsp,[rbp+0x8]
   140001923:	5b                   	pop    rbx
   140001924:	5e                   	pop    rsi
   140001925:	5f                   	pop    rdi
   140001926:	41 5c                	pop    r12
   140001928:	41 5d                	pop    r13
   14000192a:	41 5e                	pop    r14
   14000192c:	41 5f                	pop    r15
   14000192e:	5d                   	pop    rbp
   14000192f:	c3                   	ret
   140001930:	c7 05 66 57 00 00 01 	mov    DWORD PTR [rip+0x5766],0x1        # 1400070a0 <was_init.0>
   140001937:	00 00 00 
   14000193a:	e8 b1 09 00 00       	call   1400022f0 <__mingw_GetSectionCount>
   14000193f:	48 98                	cdqe
   140001941:	48 8d 04 80          	lea    rax,[rax+rax*4]
   140001945:	48 8d 04 c5 0f 00 00 	lea    rax,[rax*8+0xf]
   14000194c:	00 
   14000194d:	48 83 e0 f0          	and    rax,0xfffffffffffffff0
   140001951:	e8 ea 0b 00 00       	call   140002540 <___chkstk_ms>
   140001956:	48 8b 3d 73 2a 00 00 	mov    rdi,QWORD PTR [rip+0x2a73]        # 1400043d0 <.refptr.__RUNTIME_PSEUDO_RELOC_LIST_END__>
   14000195d:	48 8b 1d 7c 2a 00 00 	mov    rbx,QWORD PTR [rip+0x2a7c]        # 1400043e0 <.refptr.__RUNTIME_PSEUDO_RELOC_LIST__>
   140001964:	48 29 c4             	sub    rsp,rax
   140001967:	c7 05 33 57 00 00 00 	mov    DWORD PTR [rip+0x5733],0x0        # 1400070a4 <maxSections>
   14000196e:	00 00 00 
   140001971:	48 8d 44 24 30       	lea    rax,[rsp+0x30]
   140001976:	48 89 05 2b 57 00 00 	mov    QWORD PTR [rip+0x572b],rax        # 1400070a8 <the_secs>
   14000197d:	48 89 f8             	mov    rax,rdi
   140001980:	48 29 d8             	sub    rax,rbx
   140001983:	48 83 f8 07          	cmp    rax,0x7
   140001987:	7e 96                	jle    14000191f <_pei386_runtime_relocator+0x1f>
   140001989:	48 83 f8 0b          	cmp    rax,0xb
   14000198d:	0f 8f 85 01 00 00    	jg     140001b18 <_pei386_runtime_relocator+0x218>
   140001993:	8b 13                	mov    edx,DWORD PTR [rbx]
   140001995:	85 d2                	test   edx,edx
   140001997:	0f 85 90 01 00 00    	jne    140001b2d <_pei386_runtime_relocator+0x22d>
   14000199d:	8b 43 04             	mov    eax,DWORD PTR [rbx+0x4]
   1400019a0:	85 c0                	test   eax,eax
   1400019a2:	0f 85 85 01 00 00    	jne    140001b2d <_pei386_runtime_relocator+0x22d>
   1400019a8:	8b 53 08             	mov    edx,DWORD PTR [rbx+0x8]
   1400019ab:	83 fa 01             	cmp    edx,0x1
   1400019ae:	0f 85 cf 02 00 00    	jne    140001c83 <_pei386_runtime_relocator+0x383>
   1400019b4:	48 83 c3 0c          	add    rbx,0xc
   1400019b8:	4c 8b 35 01 2a 00 00 	mov    r14,QWORD PTR [rip+0x2a01]        # 1400043c0 <.refptr.__ImageBase>
   1400019bf:	4c 8d 65 f8          	lea    r12,[rbp-0x8]
   1400019c3:	48 39 fb             	cmp    rbx,rdi
   1400019c6:	72 7c                	jb     140001a44 <_pei386_runtime_relocator+0x144>
   1400019c8:	e9 52 ff ff ff       	jmp    14000191f <_pei386_runtime_relocator+0x1f>
   1400019cd:	0f 1f 00             	nop    DWORD PTR [rax]
   1400019d0:	83 fa 08             	cmp    edx,0x8
   1400019d3:	0f 84 1f 02 00 00    	je     140001bf8 <_pei386_runtime_relocator+0x2f8>
   1400019d9:	83 fa 10             	cmp    edx,0x10
   1400019dc:	0f 85 79 02 00 00    	jne    140001c5b <_pei386_runtime_relocator+0x35b>
   1400019e2:	41 0f b7 07          	movzx  eax,WORD PTR [r15]
   1400019e6:	66 85 c0             	test   ax,ax
   1400019e9:	79 06                	jns    1400019f1 <_pei386_runtime_relocator+0xf1>
   1400019eb:	48 0d 00 00 ff ff    	or     rax,0xffffffffffff0000
   1400019f1:	4c 29 c0             	sub    rax,r8
   1400019f4:	4c 01 c8             	add    rax,r9
   1400019f7:	81 e1 c0 00 00 00    	and    ecx,0xc0
   1400019fd:	48 89 45 f8          	mov    QWORD PTR [rbp-0x8],rax
   140001a01:	75 18                	jne    140001a1b <_pei386_runtime_relocator+0x11b>
   140001a03:	48 3d ff ff 00 00    	cmp    rax,0xffff
   140001a09:	0f 8f 60 02 00 00    	jg     140001c6f <_pei386_runtime_relocator+0x36f>
   140001a0f:	48 3d 00 80 ff ff    	cmp    rax,0xffffffffffff8000
   140001a15:	0f 8c 54 02 00 00    	jl     140001c6f <_pei386_runtime_relocator+0x36f>
   140001a1b:	4c 89 f9             	mov    rcx,r15
   140001a1e:	4d 89 e5             	mov    r13,r12
   140001a21:	e8 6a fd ff ff       	call   140001790 <mark_section_writable>
   140001a26:	41 b8 02 00 00 00    	mov    r8d,0x2
   140001a2c:	4c 89 e2             	mov    rdx,r12
   140001a2f:	4c 89 f9             	mov    rcx,r15
   140001a32:	e8 91 0d 00 00       	call   1400027c8 <memcpy>
   140001a37:	48 83 c3 0c          	add    rbx,0xc
   140001a3b:	48 39 fb             	cmp    rbx,rdi
   140001a3e:	0f 83 7c 00 00 00    	jae    140001ac0 <_pei386_runtime_relocator+0x1c0>
   140001a44:	44 8b 03             	mov    r8d,DWORD PTR [rbx]
   140001a47:	8b 4b 08             	mov    ecx,DWORD PTR [rbx+0x8]
   140001a4a:	44 8b 7b 04          	mov    r15d,DWORD PTR [rbx+0x4]
   140001a4e:	4d 01 f0             	add    r8,r14
   140001a51:	0f b6 d1             	movzx  edx,cl
   140001a54:	4d 8b 08             	mov    r9,QWORD PTR [r8]
   140001a57:	4d 01 f7             	add    r15,r14
   140001a5a:	83 fa 20             	cmp    edx,0x20
   140001a5d:	0f 84 2d 01 00 00    	je     140001b90 <_pei386_runtime_relocator+0x290>
   140001a63:	0f 86 67 ff ff ff    	jbe    1400019d0 <_pei386_runtime_relocator+0xd0>
   140001a69:	83 fa 40             	cmp    edx,0x40
   140001a6c:	0f 85 e9 01 00 00    	jne    140001c5b <_pei386_runtime_relocator+0x35b>
   140001a72:	49 8b 07             	mov    rax,QWORD PTR [r15]
   140001a75:	4c 29 c0             	sub    rax,r8
   140001a78:	4c 01 c8             	add    rax,r9
   140001a7b:	81 e1 c0 00 00 00    	and    ecx,0xc0
   140001a81:	48 89 45 f8          	mov    QWORD PTR [rbp-0x8],rax
   140001a85:	75 09                	jne    140001a90 <_pei386_runtime_relocator+0x190>
   140001a87:	48 85 c0             	test   rax,rax
   140001a8a:	0f 89 df 01 00 00    	jns    140001c6f <_pei386_runtime_relocator+0x36f>
   140001a90:	4c 89 f9             	mov    rcx,r15
   140001a93:	48 83 c3 0c          	add    rbx,0xc
   140001a97:	4d 89 e5             	mov    r13,r12
   140001a9a:	e8 f1 fc ff ff       	call   140001790 <mark_section_writable>
   140001a9f:	41 b8 08 00 00 00    	mov    r8d,0x8
   140001aa5:	4c 89 e2             	mov    rdx,r12
   140001aa8:	4c 89 f9             	mov    rcx,r15
   140001aab:	e8 18 0d 00 00       	call   1400027c8 <memcpy>
   140001ab0:	48 39 fb             	cmp    rbx,rdi
   140001ab3:	72 8f                	jb     140001a44 <_pei386_runtime_relocator+0x144>
   140001ab5:	66 66 2e 0f 1f 84 00 	data16 cs nop WORD PTR [rax+rax*1+0x0]
   140001abc:	00 00 00 00 
   140001ac0:	8b 05 de 55 00 00    	mov    eax,DWORD PTR [rip+0x55de]        # 1400070a4 <maxSections>
   140001ac6:	85 c0                	test   eax,eax
   140001ac8:	0f 8e 51 fe ff ff    	jle    14000191f <_pei386_runtime_relocator+0x1f>
   140001ace:	48 8b 3d bb 67 00 00 	mov    rdi,QWORD PTR [rip+0x67bb]        # 140008290 <__imp_VirtualProtect>
   140001ad5:	31 db                	xor    ebx,ebx
   140001ad7:	66 0f 1f 84 00 00 00 	nop    WORD PTR [rax+rax*1+0x0]
   140001ade:	00 00 
   140001ae0:	48 8b 05 c1 55 00 00 	mov    rax,QWORD PTR [rip+0x55c1]        # 1400070a8 <the_secs>
   140001ae7:	48 01 d8             	add    rax,rbx
   140001aea:	44 8b 00             	mov    r8d,DWORD PTR [rax]
   140001aed:	45 85 c0             	test   r8d,r8d
   140001af0:	74 0d                	je     140001aff <_pei386_runtime_relocator+0x1ff>
   140001af2:	48 8b 50 10          	mov    rdx,QWORD PTR [rax+0x10]
   140001af6:	48 8b 48 08          	mov    rcx,QWORD PTR [rax+0x8]
   140001afa:	4d 89 e9             	mov    r9,r13
   140001afd:	ff d7                	call   rdi
   140001aff:	83 c6 01             	add    esi,0x1
   140001b02:	48 83 c3 28          	add    rbx,0x28
   140001b06:	3b 35 98 55 00 00    	cmp    esi,DWORD PTR [rip+0x5598]        # 1400070a4 <maxSections>
   140001b0c:	7c d2                	jl     140001ae0 <_pei386_runtime_relocator+0x1e0>
   140001b0e:	e9 0c fe ff ff       	jmp    14000191f <_pei386_runtime_relocator+0x1f>
   140001b13:	0f 1f 44 00 00       	nop    DWORD PTR [rax+rax*1+0x0]
   140001b18:	44 8b 0b             	mov    r9d,DWORD PTR [rbx]
   140001b1b:	45 85 c9             	test   r9d,r9d
   140001b1e:	75 0d                	jne    140001b2d <_pei386_runtime_relocator+0x22d>
   140001b20:	44 8b 43 04          	mov    r8d,DWORD PTR [rbx+0x4]
   140001b24:	45 85 c0             	test   r8d,r8d
   140001b27:	0f 84 1a 01 00 00    	je     140001c47 <_pei386_runtime_relocator+0x347>
   140001b2d:	48 39 fb             	cmp    rbx,rdi
   140001b30:	0f 83 e9 fd ff ff    	jae    14000191f <_pei386_runtime_relocator+0x1f>
   140001b36:	4c 8b 35 83 28 00 00 	mov    r14,QWORD PTR [rip+0x2883]        # 1400043c0 <.refptr.__ImageBase>
   140001b3d:	4c 8d 6d f8          	lea    r13,[rbp-0x8]
   140001b41:	0f 1f 40 00          	nop    DWORD PTR [rax+0x0]
   140001b45:	66 66 2e 0f 1f 84 00 	data16 cs nop WORD PTR [rax+rax*1+0x0]
   140001b4c:	00 00 00 00 
   140001b50:	44 8b 63 04          	mov    r12d,DWORD PTR [rbx+0x4]
   140001b54:	8b 03                	mov    eax,DWORD PTR [rbx]
   140001b56:	48 83 c3 08          	add    rbx,0x8
   140001b5a:	43 03 04 26          	add    eax,DWORD PTR [r14+r12*1]
   140001b5e:	4b 8d 0c 34          	lea    rcx,[r12+r14*1]
   140001b62:	89 45 f8             	mov    DWORD PTR [rbp-0x8],eax
   140001b65:	e8 26 fc ff ff       	call   140001790 <mark_section_writable>
   140001b6a:	41 b8 04 00 00 00    	mov    r8d,0x4
   140001b70:	4c 89 ea             	mov    rdx,r13
   140001b73:	4b 8d 0c 34          	lea    rcx,[r12+r14*1]
   140001b77:	e8 4c 0c 00 00       	call   1400027c8 <memcpy>
   140001b7c:	48 39 fb             	cmp    rbx,rdi
   140001b7f:	72 cf                	jb     140001b50 <_pei386_runtime_relocator+0x250>
   140001b81:	e9 3a ff ff ff       	jmp    140001ac0 <_pei386_runtime_relocator+0x1c0>
   140001b86:	66 2e 0f 1f 84 00 00 	cs nop WORD PTR [rax+rax*1+0x0]
   140001b8d:	00 00 00 
   140001b90:	41 8b 07             	mov    eax,DWORD PTR [r15]
   140001b93:	85 c0                	test   eax,eax
   140001b95:	79 0d                	jns    140001ba4 <_pei386_runtime_relocator+0x2a4>
   140001b97:	49 bb 00 00 00 00 ff 	movabs r11,0xffffffff00000000
   140001b9e:	ff ff ff 
   140001ba1:	4c 09 d8             	or     rax,r11
   140001ba4:	4c 29 c0             	sub    rax,r8
   140001ba7:	4c 01 c8             	add    rax,r9
   140001baa:	81 e1 c0 00 00 00    	and    ecx,0xc0
   140001bb0:	48 89 45 f8          	mov    QWORD PTR [rbp-0x8],rax
   140001bb4:	75 1a                	jne    140001bd0 <_pei386_runtime_relocator+0x2d0>
   140001bb6:	b9 ff ff ff ff       	mov    ecx,0xffffffff
   140001bbb:	48 39 c8             	cmp    rax,rcx
   140001bbe:	0f 8f ab 00 00 00    	jg     140001c6f <_pei386_runtime_relocator+0x36f>
   140001bc4:	48 3d 00 00 00 80    	cmp    rax,0xffffffff80000000
   140001bca:	0f 8c 9f 00 00 00    	jl     140001c6f <_pei386_runtime_relocator+0x36f>
   140001bd0:	4c 89 f9             	mov    rcx,r15
   140001bd3:	4d 89 e5             	mov    r13,r12
   140001bd6:	e8 b5 fb ff ff       	call   140001790 <mark_section_writable>
   140001bdb:	41 b8 04 00 00 00    	mov    r8d,0x4
   140001be1:	4c 89 e2             	mov    rdx,r12
   140001be4:	4c 89 f9             	mov    rcx,r15
   140001be7:	e8 dc 0b 00 00       	call   1400027c8 <memcpy>
   140001bec:	e9 46 fe ff ff       	jmp    140001a37 <_pei386_runtime_relocator+0x137>
   140001bf1:	0f 1f 80 00 00 00 00 	nop    DWORD PTR [rax+0x0]
   140001bf8:	41 0f b6 07          	movzx  eax,BYTE PTR [r15]
   140001bfc:	84 c0                	test   al,al
   140001bfe:	79 06                	jns    140001c06 <_pei386_runtime_relocator+0x306>
   140001c00:	48 0d 00 ff ff ff    	or     rax,0xffffffffffffff00
   140001c06:	4c 29 c0             	sub    rax,r8
   140001c09:	4c 01 c8             	add    rax,r9
   140001c0c:	81 e1 c0 00 00 00    	and    ecx,0xc0
   140001c12:	48 89 45 f8          	mov    QWORD PTR [rbp-0x8],rax
   140001c16:	75 0e                	jne    140001c26 <_pei386_runtime_relocator+0x326>
   140001c18:	48 3d ff 00 00 00    	cmp    rax,0xff
   140001c1e:	7f 4f                	jg     140001c6f <_pei386_runtime_relocator+0x36f>
   140001c20:	48 83 f8 80          	cmp    rax,0xffffffffffffff80
   140001c24:	7c 49                	jl     140001c6f <_pei386_runtime_relocator+0x36f>
   140001c26:	4c 89 f9             	mov    rcx,r15
   140001c29:	4d 89 e5             	mov    r13,r12
   140001c2c:	e8 5f fb ff ff       	call   140001790 <mark_section_writable>
   140001c31:	41 b8 01 00 00 00    	mov    r8d,0x1
   140001c37:	4c 89 e2             	mov    rdx,r12
   140001c3a:	4c 89 f9             	mov    rcx,r15
   140001c3d:	e8 86 0b 00 00       	call   1400027c8 <memcpy>
   140001c42:	e9 f0 fd ff ff       	jmp    140001a37 <_pei386_runtime_relocator+0x137>
   140001c47:	8b 4b 08             	mov    ecx,DWORD PTR [rbx+0x8]
   140001c4a:	85 c9                	test   ecx,ecx
   140001c4c:	0f 85 56 fd ff ff    	jne    1400019a8 <_pei386_runtime_relocator+0xa8>
   140001c52:	48 83 c3 0c          	add    rbx,0xc
   140001c56:	e9 38 fd ff ff       	jmp    140001993 <_pei386_runtime_relocator+0x93>
   140001c5b:	48 8d 0d 56 26 00 00 	lea    rcx,[rip+0x2656]        # 1400042b8 <.rdata+0xd8>
   140001c62:	48 c7 45 f8 00 00 00 	mov    QWORD PTR [rbp-0x8],0x0
   140001c69:	00 
   140001c6a:	e8 c1 fa ff ff       	call   140001730 <__report_error>
   140001c6f:	48 89 44 24 20       	mov    QWORD PTR [rsp+0x20],rax
   140001c74:	4d 89 f8             	mov    r8,r15
   140001c77:	48 8d 0d 6a 26 00 00 	lea    rcx,[rip+0x266a]        # 1400042e8 <.rdata+0x108>
   140001c7e:	e8 ad fa ff ff       	call   140001730 <__report_error>
   140001c83:	48 8d 0d f6 25 00 00 	lea    rcx,[rip+0x25f6]        # 140004280 <.rdata+0xa0>
   140001c8a:	e8 a1 fa ff ff       	call   140001730 <__report_error>
   140001c8f:	90                   	nop

0000000140001c90 <__mingw_raise_matherr>:
   140001c90:	48 83 ec 58          	sub    rsp,0x58
   140001c94:	48 8b 05 15 54 00 00 	mov    rax,QWORD PTR [rip+0x5415]        # 1400070b0 <stUserMathErr>
   140001c9b:	48 85 c0             	test   rax,rax
   140001c9e:	74 29                	je     140001cc9 <__mingw_raise_matherr+0x39>
   140001ca0:	f2 0f 10 84 24 80 00 	movsd  xmm0,QWORD PTR [rsp+0x80]
   140001ca7:	00 00 
   140001ca9:	66 0f 14 d3          	unpcklpd xmm2,xmm3
   140001cad:	89 4c 24 20          	mov    DWORD PTR [rsp+0x20],ecx
   140001cb1:	48 8d 4c 24 20       	lea    rcx,[rsp+0x20]
   140001cb6:	48 89 54 24 28       	mov    QWORD PTR [rsp+0x28],rdx
   140001cbb:	0f 11 54 24 30       	movups XMMWORD PTR [rsp+0x30],xmm2
   140001cc0:	f2 0f 11 44 24 40    	movsd  QWORD PTR [rsp+0x40],xmm0
   140001cc6:	ff d0                	call   rax
   140001cc8:	90                   	nop
   140001cc9:	48 83 c4 58          	add    rsp,0x58
   140001ccd:	c3                   	ret
   140001cce:	66 90                	xchg   ax,ax

0000000140001cd0 <__mingw_setusermatherr>:
   140001cd0:	48 89 0d d9 53 00 00 	mov    QWORD PTR [rip+0x53d9],rcx        # 1400070b0 <stUserMathErr>
   140001cd7:	e9 f4 0a 00 00       	jmp    1400027d0 <__setusermatherr>
   140001cdc:	90                   	nop
   140001cdd:	90                   	nop
   140001cde:	90                   	nop
   140001cdf:	90                   	nop

0000000140001ce0 <_gnu_exception_handler>:
   140001ce0:	53                   	push   rbx
   140001ce1:	48 83 ec 20          	sub    rsp,0x20
   140001ce5:	48 8b 11             	mov    rdx,QWORD PTR [rcx]
   140001ce8:	8b 02                	mov    eax,DWORD PTR [rdx]
   140001cea:	48 89 cb             	mov    rbx,rcx
   140001ced:	89 c1                	mov    ecx,eax
   140001cef:	81 e1 ff ff ff 20    	and    ecx,0x20ffffff
   140001cf5:	81 f9 43 43 47 20    	cmp    ecx,0x20474343
   140001cfb:	0f 84 8f 00 00 00    	je     140001d90 <_gnu_exception_handler+0xb0>
   140001d01:	3d 96 00 00 c0       	cmp    eax,0xc0000096
   140001d06:	77 47                	ja     140001d4f <_gnu_exception_handler+0x6f>
   140001d08:	3d 8b 00 00 c0       	cmp    eax,0xc000008b
   140001d0d:	76 61                	jbe    140001d70 <_gnu_exception_handler+0x90>
   140001d0f:	05 73 ff ff 3f       	add    eax,0x3fffff73
   140001d14:	83 f8 09             	cmp    eax,0x9
   140001d17:	77 6b                	ja     140001d84 <_gnu_exception_handler+0xa4>
   140001d19:	48 8d 15 20 26 00 00 	lea    rdx,[rip+0x2620]        # 140004340 <.rdata>
   140001d20:	48 63 04 82          	movsxd rax,DWORD PTR [rdx+rax*4]
   140001d24:	48 01 d0             	add    rax,rdx
   140001d27:	ff e0                	jmp    rax
   140001d29:	0f 1f 80 00 00 00 00 	nop    DWORD PTR [rax+0x0]
   140001d30:	31 d2                	xor    edx,edx
   140001d32:	b9 08 00 00 00       	mov    ecx,0x8
   140001d37:	e8 7c 0a 00 00       	call   1400027b8 <signal>
   140001d3c:	48 83 f8 01          	cmp    rax,0x1
   140001d40:	0f 84 3e 01 00 00    	je     140001e84 <_gnu_exception_handler+0x1a4>
   140001d46:	48 85 c0             	test   rax,rax
   140001d49:	0f 85 01 01 00 00    	jne    140001e50 <_gnu_exception_handler+0x170>
   140001d4f:	48 8b 05 7a 53 00 00 	mov    rax,QWORD PTR [rip+0x537a]        # 1400070d0 <__mingw_oldexcpt_handler>
   140001d56:	48 85 c0             	test   rax,rax
   140001d59:	74 45                	je     140001da0 <_gnu_exception_handler+0xc0>
   140001d5b:	48 89 d9             	mov    rcx,rbx
   140001d5e:	48 83 c4 20          	add    rsp,0x20
   140001d62:	5b                   	pop    rbx
   140001d63:	48 ff e0             	rex.W jmp rax
   140001d66:	66 2e 0f 1f 84 00 00 	cs nop WORD PTR [rax+rax*1+0x0]
   140001d6d:	00 00 00 
   140001d70:	3d 05 00 00 c0       	cmp    eax,0xc0000005
   140001d75:	0f 84 a5 00 00 00    	je     140001e20 <_gnu_exception_handler+0x140>
   140001d7b:	77 33                	ja     140001db0 <_gnu_exception_handler+0xd0>
   140001d7d:	3d 02 00 00 80       	cmp    eax,0x80000002
   140001d82:	75 cb                	jne    140001d4f <_gnu_exception_handler+0x6f>
   140001d84:	b8 ff ff ff ff       	mov    eax,0xffffffff
   140001d89:	48 83 c4 20          	add    rsp,0x20
   140001d8d:	5b                   	pop    rbx
   140001d8e:	c3                   	ret
   140001d8f:	90                   	nop
   140001d90:	f6 42 04 01          	test   BYTE PTR [rdx+0x4],0x1
   140001d94:	0f 85 67 ff ff ff    	jne    140001d01 <_gnu_exception_handler+0x21>
   140001d9a:	eb e8                	jmp    140001d84 <_gnu_exception_handler+0xa4>
   140001d9c:	0f 1f 40 00          	nop    DWORD PTR [rax+0x0]
   140001da0:	31 c0                	xor    eax,eax
   140001da2:	48 83 c4 20          	add    rsp,0x20
   140001da6:	5b                   	pop    rbx
   140001da7:	c3                   	ret
   140001da8:	0f 1f 84 00 00 00 00 	nop    DWORD PTR [rax+rax*1+0x0]
   140001daf:	00 
   140001db0:	3d 08 00 00 c0       	cmp    eax,0xc0000008
   140001db5:	74 cd                	je     140001d84 <_gnu_exception_handler+0xa4>
   140001db7:	3d 1d 00 00 c0       	cmp    eax,0xc000001d
   140001dbc:	75 91                	jne    140001d4f <_gnu_exception_handler+0x6f>
   140001dbe:	31 d2                	xor    edx,edx
   140001dc0:	b9 04 00 00 00       	mov    ecx,0x4
   140001dc5:	e8 ee 09 00 00       	call   1400027b8 <signal>
   140001dca:	48 83 f8 01          	cmp    rax,0x1
   140001dce:	0f 84 9c 00 00 00    	je     140001e70 <_gnu_exception_handler+0x190>
   140001dd4:	48 85 c0             	test   rax,rax
   140001dd7:	0f 84 72 ff ff ff    	je     140001d4f <_gnu_exception_handler+0x6f>
   140001ddd:	b9 04 00 00 00       	mov    ecx,0x4
   140001de2:	ff d0                	call   rax
   140001de4:	eb 9e                	jmp    140001d84 <_gnu_exception_handler+0xa4>
   140001de6:	66 2e 0f 1f 84 00 00 	cs nop WORD PTR [rax+rax*1+0x0]
   140001ded:	00 00 00 
   140001df0:	31 d2                	xor    edx,edx
   140001df2:	b9 08 00 00 00       	mov    ecx,0x8
   140001df7:	e8 bc 09 00 00       	call   1400027b8 <signal>
   140001dfc:	48 83 f8 01          	cmp    rax,0x1
   140001e00:	0f 85 40 ff ff ff    	jne    140001d46 <_gnu_exception_handler+0x66>
   140001e06:	ba 01 00 00 00       	mov    edx,0x1
   140001e0b:	b9 08 00 00 00       	mov    ecx,0x8
   140001e10:	e8 a3 09 00 00       	call   1400027b8 <signal>
   140001e15:	e9 6a ff ff ff       	jmp    140001d84 <_gnu_exception_handler+0xa4>
   140001e1a:	66 0f 1f 44 00 00    	nop    WORD PTR [rax+rax*1+0x0]
   140001e20:	31 d2                	xor    edx,edx
   140001e22:	b9 0b 00 00 00       	mov    ecx,0xb
   140001e27:	e8 8c 09 00 00       	call   1400027b8 <signal>
   140001e2c:	48 83 f8 01          	cmp    rax,0x1
   140001e30:	74 2a                	je     140001e5c <_gnu_exception_handler+0x17c>
   140001e32:	48 85 c0             	test   rax,rax
   140001e35:	0f 84 14 ff ff ff    	je     140001d4f <_gnu_exception_handler+0x6f>
   140001e3b:	b9 0b 00 00 00       	mov    ecx,0xb
   140001e40:	ff d0                	call   rax
   140001e42:	e9 3d ff ff ff       	jmp    140001d84 <_gnu_exception_handler+0xa4>
   140001e47:	66 0f 1f 84 00 00 00 	nop    WORD PTR [rax+rax*1+0x0]
   140001e4e:	00 00 
   140001e50:	b9 08 00 00 00       	mov    ecx,0x8
   140001e55:	ff d0                	call   rax
   140001e57:	e9 28 ff ff ff       	jmp    140001d84 <_gnu_exception_handler+0xa4>
   140001e5c:	ba 01 00 00 00       	mov    edx,0x1
   140001e61:	b9 0b 00 00 00       	mov    ecx,0xb
   140001e66:	e8 4d 09 00 00       	call   1400027b8 <signal>
   140001e6b:	e9 14 ff ff ff       	jmp    140001d84 <_gnu_exception_handler+0xa4>
   140001e70:	ba 01 00 00 00       	mov    edx,0x1
   140001e75:	b9 04 00 00 00       	mov    ecx,0x4
   140001e7a:	e8 39 09 00 00       	call   1400027b8 <signal>
   140001e7f:	e9 00 ff ff ff       	jmp    140001d84 <_gnu_exception_handler+0xa4>
   140001e84:	ba 01 00 00 00       	mov    edx,0x1
   140001e89:	b9 08 00 00 00       	mov    ecx,0x8
   140001e8e:	e8 25 09 00 00       	call   1400027b8 <signal>
   140001e93:	e8 a8 02 00 00       	call   140002140 <_fpreset>
   140001e98:	e9 e7 fe ff ff       	jmp    140001d84 <_gnu_exception_handler+0xa4>
   140001e9d:	90                   	nop
   140001e9e:	90                   	nop
   140001e9f:	90                   	nop

0000000140001ea0 <__mingwthr_run_key_dtors.part.0>:
   140001ea0:	55                   	push   rbp
   140001ea1:	57                   	push   rdi
   140001ea2:	56                   	push   rsi
   140001ea3:	53                   	push   rbx
   140001ea4:	48 83 ec 28          	sub    rsp,0x28
   140001ea8:	48 8d 0d 51 52 00 00 	lea    rcx,[rip+0x5251]        # 140007100 <__mingwthr_cs>
   140001eaf:	ff 15 a3 63 00 00    	call   QWORD PTR [rip+0x63a3]        # 140008258 <__imp_EnterCriticalSection>
   140001eb5:	48 8b 1d 24 52 00 00 	mov    rbx,QWORD PTR [rip+0x5224]        # 1400070e0 <key_dtor_list>
   140001ebc:	48 85 db             	test   rbx,rbx
   140001ebf:	74 33                	je     140001ef4 <__mingwthr_run_key_dtors.part.0+0x54>
   140001ec1:	48 8b 2d c0 63 00 00 	mov    rbp,QWORD PTR [rip+0x63c0]        # 140008288 <__imp_TlsGetValue>
   140001ec8:	48 8b 3d 91 63 00 00 	mov    rdi,QWORD PTR [rip+0x6391]        # 140008260 <__imp_GetLastError>
   140001ecf:	90                   	nop
   140001ed0:	8b 0b                	mov    ecx,DWORD PTR [rbx]
   140001ed2:	ff d5                	call   rbp
   140001ed4:	48 89 c6             	mov    rsi,rax
   140001ed7:	ff d7                	call   rdi
   140001ed9:	48 85 f6             	test   rsi,rsi
   140001edc:	74 0d                	je     140001eeb <__mingwthr_run_key_dtors.part.0+0x4b>
   140001ede:	85 c0                	test   eax,eax
   140001ee0:	75 09                	jne    140001eeb <__mingwthr_run_key_dtors.part.0+0x4b>
   140001ee2:	48 8b 43 08          	mov    rax,QWORD PTR [rbx+0x8]
   140001ee6:	48 89 f1             	mov    rcx,rsi
   140001ee9:	ff d0                	call   rax
   140001eeb:	48 8b 5b 10          	mov    rbx,QWORD PTR [rbx+0x10]
   140001eef:	48 85 db             	test   rbx,rbx
   140001ef2:	75 dc                	jne    140001ed0 <__mingwthr_run_key_dtors.part.0+0x30>
   140001ef4:	48 8d 0d 05 52 00 00 	lea    rcx,[rip+0x5205]        # 140007100 <__mingwthr_cs>
   140001efb:	48 83 c4 28          	add    rsp,0x28
   140001eff:	5b                   	pop    rbx
   140001f00:	5e                   	pop    rsi
   140001f01:	5f                   	pop    rdi
   140001f02:	5d                   	pop    rbp
   140001f03:	48 ff 25 66 63 00 00 	rex.W jmp QWORD PTR [rip+0x6366]        # 140008270 <__imp_LeaveCriticalSection>
   140001f0a:	66 0f 1f 44 00 00    	nop    WORD PTR [rax+rax*1+0x0]

0000000140001f10 <___w64_mingwthr_add_key_dtor>:
   140001f10:	48 83 ec 38          	sub    rsp,0x38
   140001f14:	8b 05 ce 51 00 00    	mov    eax,DWORD PTR [rip+0x51ce]        # 1400070e8 <__mingwthr_cs_init>
   140001f1a:	41 89 c9             	mov    r9d,ecx
   140001f1d:	85 c0                	test   eax,eax
   140001f1f:	75 0f                	jne    140001f30 <___w64_mingwthr_add_key_dtor+0x20>
   140001f21:	31 c0                	xor    eax,eax
   140001f23:	48 83 c4 38          	add    rsp,0x38
   140001f27:	c3                   	ret
   140001f28:	0f 1f 84 00 00 00 00 	nop    DWORD PTR [rax+rax*1+0x0]
   140001f2f:	00 
   140001f30:	48 89 54 24 48       	mov    QWORD PTR [rsp+0x48],rdx
   140001f35:	b9 01 00 00 00       	mov    ecx,0x1
   140001f3a:	ba 18 00 00 00       	mov    edx,0x18
   140001f3f:	44 89 4c 24 40       	mov    DWORD PTR [rsp+0x40],r9d
   140001f44:	e8 af 08 00 00       	call   1400027f8 <calloc>
   140001f49:	48 85 c0             	test   rax,rax
   140001f4c:	74 49                	je     140001f97 <___w64_mingwthr_add_key_dtor+0x87>
   140001f4e:	44 8b 4c 24 40       	mov    r9d,DWORD PTR [rsp+0x40]
   140001f53:	4c 8b 44 24 48       	mov    r8,QWORD PTR [rsp+0x48]
   140001f58:	48 89 44 24 28       	mov    QWORD PTR [rsp+0x28],rax
   140001f5d:	48 8d 0d 9c 51 00 00 	lea    rcx,[rip+0x519c]        # 140007100 <__mingwthr_cs>
   140001f64:	44 89 08             	mov    DWORD PTR [rax],r9d
   140001f67:	4c 89 40 08          	mov    QWORD PTR [rax+0x8],r8
   140001f6b:	ff 15 e7 62 00 00    	call   QWORD PTR [rip+0x62e7]        # 140008258 <__imp_EnterCriticalSection>
   140001f71:	48 8b 15 68 51 00 00 	mov    rdx,QWORD PTR [rip+0x5168]        # 1400070e0 <key_dtor_list>
   140001f78:	48 8b 44 24 28       	mov    rax,QWORD PTR [rsp+0x28]
   140001f7d:	48 8d 0d 7c 51 00 00 	lea    rcx,[rip+0x517c]        # 140007100 <__mingwthr_cs>
   140001f84:	48 89 50 10          	mov    QWORD PTR [rax+0x10],rdx
   140001f88:	48 89 05 51 51 00 00 	mov    QWORD PTR [rip+0x5151],rax        # 1400070e0 <key_dtor_list>
   140001f8f:	ff 15 db 62 00 00    	call   QWORD PTR [rip+0x62db]        # 140008270 <__imp_LeaveCriticalSection>
   140001f95:	eb 8a                	jmp    140001f21 <___w64_mingwthr_add_key_dtor+0x11>
   140001f97:	b8 ff ff ff ff       	mov    eax,0xffffffff
   140001f9c:	eb 85                	jmp    140001f23 <___w64_mingwthr_add_key_dtor+0x13>
   140001f9e:	66 90                	xchg   ax,ax

0000000140001fa0 <___w64_mingwthr_remove_key_dtor>:
   140001fa0:	48 83 ec 28          	sub    rsp,0x28
   140001fa4:	8b 05 3e 51 00 00    	mov    eax,DWORD PTR [rip+0x513e]        # 1400070e8 <__mingwthr_cs_init>
   140001faa:	85 c0                	test   eax,eax
   140001fac:	75 0a                	jne    140001fb8 <___w64_mingwthr_remove_key_dtor+0x18>
   140001fae:	31 c0                	xor    eax,eax
   140001fb0:	48 83 c4 28          	add    rsp,0x28
   140001fb4:	c3                   	ret
   140001fb5:	0f 1f 00             	nop    DWORD PTR [rax]
   140001fb8:	89 4c 24 30          	mov    DWORD PTR [rsp+0x30],ecx
   140001fbc:	48 8d 0d 3d 51 00 00 	lea    rcx,[rip+0x513d]        # 140007100 <__mingwthr_cs>
   140001fc3:	ff 15 8f 62 00 00    	call   QWORD PTR [rip+0x628f]        # 140008258 <__imp_EnterCriticalSection>
   140001fc9:	48 8b 0d 10 51 00 00 	mov    rcx,QWORD PTR [rip+0x5110]        # 1400070e0 <key_dtor_list>
   140001fd0:	48 85 c9             	test   rcx,rcx
   140001fd3:	74 2e                	je     140002003 <___w64_mingwthr_remove_key_dtor+0x63>
   140001fd5:	8b 54 24 30          	mov    edx,DWORD PTR [rsp+0x30]
   140001fd9:	45 31 c0             	xor    r8d,r8d
   140001fdc:	eb 0d                	jmp    140001feb <___w64_mingwthr_remove_key_dtor+0x4b>
   140001fde:	66 90                	xchg   ax,ax
   140001fe0:	49 89 c8             	mov    r8,rcx
   140001fe3:	48 85 c0             	test   rax,rax
   140001fe6:	74 1b                	je     140002003 <___w64_mingwthr_remove_key_dtor+0x63>
   140001fe8:	48 89 c1             	mov    rcx,rax
   140001feb:	8b 01                	mov    eax,DWORD PTR [rcx]
   140001fed:	39 d0                	cmp    eax,edx
   140001fef:	48 8b 41 10          	mov    rax,QWORD PTR [rcx+0x10]
   140001ff3:	75 eb                	jne    140001fe0 <___w64_mingwthr_remove_key_dtor+0x40>
   140001ff5:	4d 85 c0             	test   r8,r8
   140001ff8:	74 26                	je     140002020 <___w64_mingwthr_remove_key_dtor+0x80>
   140001ffa:	49 89 40 10          	mov    QWORD PTR [r8+0x10],rax
   140001ffe:	e8 fd 07 00 00       	call   140002800 <free>
   140002003:	48 8d 0d f6 50 00 00 	lea    rcx,[rip+0x50f6]        # 140007100 <__mingwthr_cs>
   14000200a:	ff 15 60 62 00 00    	call   QWORD PTR [rip+0x6260]        # 140008270 <__imp_LeaveCriticalSection>
   140002010:	31 c0                	xor    eax,eax
   140002012:	48 83 c4 28          	add    rsp,0x28
   140002016:	c3                   	ret
   140002017:	66 0f 1f 84 00 00 00 	nop    WORD PTR [rax+rax*1+0x0]
   14000201e:	00 00 
   140002020:	48 89 05 b9 50 00 00 	mov    QWORD PTR [rip+0x50b9],rax        # 1400070e0 <key_dtor_list>
   140002027:	eb d5                	jmp    140001ffe <___w64_mingwthr_remove_key_dtor+0x5e>
   140002029:	0f 1f 80 00 00 00 00 	nop    DWORD PTR [rax+0x0]

0000000140002030 <__mingw_TLScallback>:
   140002030:	48 83 ec 38          	sub    rsp,0x38
   140002034:	83 fa 02             	cmp    edx,0x2
   140002037:	0f 84 bb 00 00 00    	je     1400020f8 <__mingw_TLScallback+0xc8>
   14000203d:	77 29                	ja     140002068 <__mingw_TLScallback+0x38>
   14000203f:	85 d2                	test   edx,edx
   140002041:	74 3d                	je     140002080 <__mingw_TLScallback+0x50>
   140002043:	8b 05 9f 50 00 00    	mov    eax,DWORD PTR [rip+0x509f]        # 1400070e8 <__mingwthr_cs_init>
   140002049:	85 c0                	test   eax,eax
   14000204b:	0f 84 cf 00 00 00    	je     140002120 <__mingw_TLScallback+0xf0>
   140002051:	c7 05 8d 50 00 00 01 	mov    DWORD PTR [rip+0x508d],0x1        # 1400070e8 <__mingwthr_cs_init>
   140002058:	00 00 00 
   14000205b:	b8 01 00 00 00       	mov    eax,0x1
   140002060:	48 83 c4 38          	add    rsp,0x38
   140002064:	c3                   	ret
   140002065:	0f 1f 00             	nop    DWORD PTR [rax]
   140002068:	83 fa 03             	cmp    edx,0x3
   14000206b:	75 ee                	jne    14000205b <__mingw_TLScallback+0x2b>
   14000206d:	8b 05 75 50 00 00    	mov    eax,DWORD PTR [rip+0x5075]        # 1400070e8 <__mingwthr_cs_init>
   140002073:	85 c0                	test   eax,eax
   140002075:	74 e4                	je     14000205b <__mingw_TLScallback+0x2b>
   140002077:	e8 24 fe ff ff       	call   140001ea0 <__mingwthr_run_key_dtors.part.0>
   14000207c:	eb dd                	jmp    14000205b <__mingw_TLScallback+0x2b>
   14000207e:	66 90                	xchg   ax,ax
   140002080:	8b 05 62 50 00 00    	mov    eax,DWORD PTR [rip+0x5062]        # 1400070e8 <__mingwthr_cs_init>
   140002086:	85 c0                	test   eax,eax
   140002088:	0f 85 82 00 00 00    	jne    140002110 <__mingw_TLScallback+0xe0>
   14000208e:	8b 05 54 50 00 00    	mov    eax,DWORD PTR [rip+0x5054]        # 1400070e8 <__mingwthr_cs_init>
   140002094:	83 f8 01             	cmp    eax,0x1
   140002097:	75 c2                	jne    14000205b <__mingw_TLScallback+0x2b>
   140002099:	48 8b 05 40 50 00 00 	mov    rax,QWORD PTR [rip+0x5040]        # 1400070e0 <key_dtor_list>
   1400020a0:	48 85 c0             	test   rax,rax
   1400020a3:	74 26                	je     1400020cb <__mingw_TLScallback+0x9b>
   1400020a5:	66 66 2e 0f 1f 84 00 	data16 cs nop WORD PTR [rax+rax*1+0x0]
   1400020ac:	00 00 00 00 
   1400020b0:	48 89 c1             	mov    rcx,rax
   1400020b3:	48 8b 40 10          	mov    rax,QWORD PTR [rax+0x10]
   1400020b7:	48 89 44 24 28       	mov    QWORD PTR [rsp+0x28],rax
   1400020bc:	e8 3f 07 00 00       	call   140002800 <free>
   1400020c1:	48 8b 44 24 28       	mov    rax,QWORD PTR [rsp+0x28]
   1400020c6:	48 85 c0             	test   rax,rax
   1400020c9:	75 e5                	jne    1400020b0 <__mingw_TLScallback+0x80>
   1400020cb:	48 8d 0d 2e 50 00 00 	lea    rcx,[rip+0x502e]        # 140007100 <__mingwthr_cs>
   1400020d2:	48 c7 05 03 50 00 00 	mov    QWORD PTR [rip+0x5003],0x0        # 1400070e0 <key_dtor_list>
   1400020d9:	00 00 00 00 
   1400020dd:	c7 05 01 50 00 00 00 	mov    DWORD PTR [rip+0x5001],0x0        # 1400070e8 <__mingwthr_cs_init>
   1400020e4:	00 00 00 
   1400020e7:	ff 15 63 61 00 00    	call   QWORD PTR [rip+0x6163]        # 140008250 <__IAT_start__>
   1400020ed:	e9 69 ff ff ff       	jmp    14000205b <__mingw_TLScallback+0x2b>
   1400020f2:	66 0f 1f 44 00 00    	nop    WORD PTR [rax+rax*1+0x0]
   1400020f8:	e8 43 00 00 00       	call   140002140 <_fpreset>
   1400020fd:	b8 01 00 00 00       	mov    eax,0x1
   140002102:	48 83 c4 38          	add    rsp,0x38
   140002106:	c3                   	ret
   140002107:	66 0f 1f 84 00 00 00 	nop    WORD PTR [rax+rax*1+0x0]
   14000210e:	00 00 
   140002110:	e8 8b fd ff ff       	call   140001ea0 <__mingwthr_run_key_dtors.part.0>
   140002115:	e9 74 ff ff ff       	jmp    14000208e <__mingw_TLScallback+0x5e>
   14000211a:	66 0f 1f 44 00 00    	nop    WORD PTR [rax+rax*1+0x0]
   140002120:	48 8d 0d d9 4f 00 00 	lea    rcx,[rip+0x4fd9]        # 140007100 <__mingwthr_cs>
   140002127:	ff 15 3b 61 00 00    	call   QWORD PTR [rip+0x613b]        # 140008268 <__imp_InitializeCriticalSection>
   14000212d:	e9 1f ff ff ff       	jmp    140002051 <__mingw_TLScallback+0x21>
   140002132:	90                   	nop
   140002133:	90                   	nop
   140002134:	90                   	nop
   140002135:	90                   	nop
   140002136:	90                   	nop
   140002137:	90                   	nop
   140002138:	90                   	nop
   140002139:	90                   	nop
   14000213a:	90                   	nop
   14000213b:	90                   	nop
   14000213c:	90                   	nop
   14000213d:	90                   	nop
   14000213e:	90                   	nop
   14000213f:	90                   	nop

0000000140002140 <_fpreset>:
   140002140:	db e3                	fninit
   140002142:	c3                   	ret
   140002143:	90                   	nop
   140002144:	90                   	nop
   140002145:	90                   	nop
   140002146:	90                   	nop
   140002147:	90                   	nop
   140002148:	90                   	nop
   140002149:	90                   	nop
   14000214a:	90                   	nop
   14000214b:	90                   	nop
   14000214c:	90                   	nop
   14000214d:	90                   	nop
   14000214e:	90                   	nop
   14000214f:	90                   	nop

0000000140002150 <_ValidateImageBase>:
   140002150:	31 c0                	xor    eax,eax
   140002152:	66 81 39 4d 5a       	cmp    WORD PTR [rcx],0x5a4d
   140002157:	75 0f                	jne    140002168 <_ValidateImageBase+0x18>
   140002159:	48 63 51 3c          	movsxd rdx,DWORD PTR [rcx+0x3c]
   14000215d:	48 01 d1             	add    rcx,rdx
   140002160:	81 39 50 45 00 00    	cmp    DWORD PTR [rcx],0x4550
   140002166:	74 08                	je     140002170 <_ValidateImageBase+0x20>
   140002168:	c3                   	ret
   140002169:	0f 1f 80 00 00 00 00 	nop    DWORD PTR [rax+0x0]
   140002170:	31 c0                	xor    eax,eax
   140002172:	66 81 79 18 0b 02    	cmp    WORD PTR [rcx+0x18],0x20b
   140002178:	0f 94 c0             	sete   al
   14000217b:	c3                   	ret
   14000217c:	0f 1f 40 00          	nop    DWORD PTR [rax+0x0]

0000000140002180 <_FindPESection>:
   140002180:	48 63 41 3c          	movsxd rax,DWORD PTR [rcx+0x3c]
   140002184:	48 01 c8             	add    rax,rcx
   140002187:	0f b7 48 06          	movzx  ecx,WORD PTR [rax+0x6]
   14000218b:	66 85 c9             	test   cx,cx
   14000218e:	74 3d                	je     1400021cd <_FindPESection+0x4d>
   140002190:	44 0f b7 40 14       	movzx  r8d,WORD PTR [rax+0x14]
   140002195:	83 e9 01             	sub    ecx,0x1
   140002198:	48 8d 0c 89          	lea    rcx,[rcx+rcx*4]
   14000219c:	4a 8d 44 00 18       	lea    rax,[rax+r8*1+0x18]
   1400021a1:	4c 8d 4c c8 28       	lea    r9,[rax+rcx*8+0x28]
   1400021a6:	66 2e 0f 1f 84 00 00 	cs nop WORD PTR [rax+rax*1+0x0]
   1400021ad:	00 00 00 
   1400021b0:	44 8b 40 0c          	mov    r8d,DWORD PTR [rax+0xc]
   1400021b4:	4c 89 c1             	mov    rcx,r8
   1400021b7:	4c 39 c2             	cmp    rdx,r8
   1400021ba:	72 08                	jb     1400021c4 <_FindPESection+0x44>
   1400021bc:	03 48 08             	add    ecx,DWORD PTR [rax+0x8]
   1400021bf:	48 39 ca             	cmp    rdx,rcx
   1400021c2:	72 0b                	jb     1400021cf <_FindPESection+0x4f>
   1400021c4:	48 83 c0 28          	add    rax,0x28
   1400021c8:	4c 39 c8             	cmp    rax,r9
   1400021cb:	75 e3                	jne    1400021b0 <_FindPESection+0x30>
   1400021cd:	31 c0                	xor    eax,eax
   1400021cf:	c3                   	ret

00000001400021d0 <_FindPESectionByName>:
   1400021d0:	55                   	push   rbp
   1400021d1:	57                   	push   rdi
   1400021d2:	56                   	push   rsi
   1400021d3:	53                   	push   rbx
   1400021d4:	48 83 ec 28          	sub    rsp,0x28
   1400021d8:	48 89 cf             	mov    rdi,rcx
   1400021db:	e8 40 05 00 00       	call   140002720 <strlen>
   1400021e0:	48 83 f8 08          	cmp    rax,0x8
   1400021e4:	77 0e                	ja     1400021f4 <_FindPESectionByName+0x24>
   1400021e6:	48 8b 05 d3 21 00 00 	mov    rax,QWORD PTR [rip+0x21d3]        # 1400043c0 <.refptr.__ImageBase>
   1400021ed:	66 81 38 4d 5a       	cmp    WORD PTR [rax],0x5a4d
   1400021f2:	74 14                	je     140002208 <_FindPESectionByName+0x38>
   1400021f4:	31 db                	xor    ebx,ebx
   1400021f6:	48 89 d8             	mov    rax,rbx
   1400021f9:	48 83 c4 28          	add    rsp,0x28
   1400021fd:	5b                   	pop    rbx
   1400021fe:	5e                   	pop    rsi
   1400021ff:	5f                   	pop    rdi
   140002200:	5d                   	pop    rbp
   140002201:	c3                   	ret
   140002202:	66 0f 1f 44 00 00    	nop    WORD PTR [rax+rax*1+0x0]
   140002208:	48 63 68 3c          	movsxd rbp,DWORD PTR [rax+0x3c]
   14000220c:	48 01 c5             	add    rbp,rax
   14000220f:	81 7d 00 50 45 00 00 	cmp    DWORD PTR [rbp+0x0],0x4550
   140002216:	75 dc                	jne    1400021f4 <_FindPESectionByName+0x24>
   140002218:	66 81 7d 18 0b 02    	cmp    WORD PTR [rbp+0x18],0x20b
   14000221e:	75 d4                	jne    1400021f4 <_FindPESectionByName+0x24>
   140002220:	66 83 7d 06 00       	cmp    WORD PTR [rbp+0x6],0x0
   140002225:	74 cd                	je     1400021f4 <_FindPESectionByName+0x24>
   140002227:	0f b7 45 14          	movzx  eax,WORD PTR [rbp+0x14]
   14000222b:	31 f6                	xor    esi,esi
   14000222d:	48 8d 5c 05 18       	lea    rbx,[rbp+rax*1+0x18]
   140002232:	0f 1f 00             	nop    DWORD PTR [rax]
   140002235:	66 66 2e 0f 1f 84 00 	data16 cs nop WORD PTR [rax+rax*1+0x0]
   14000223c:	00 00 00 00 
   140002240:	41 b8 08 00 00 00    	mov    r8d,0x8
   140002246:	48 89 fa             	mov    rdx,rdi
   140002249:	48 89 d9             	mov    rcx,rbx
   14000224c:	e8 d7 04 00 00       	call   140002728 <strncmp>
   140002251:	85 c0                	test   eax,eax
   140002253:	74 a1                	je     1400021f6 <_FindPESectionByName+0x26>
   140002255:	0f b7 45 06          	movzx  eax,WORD PTR [rbp+0x6]
   140002259:	83 c6 01             	add    esi,0x1
   14000225c:	48 83 c3 28          	add    rbx,0x28
   140002260:	39 c6                	cmp    esi,eax
   140002262:	72 dc                	jb     140002240 <_FindPESectionByName+0x70>
   140002264:	eb 8e                	jmp    1400021f4 <_FindPESectionByName+0x24>
   140002266:	66 2e 0f 1f 84 00 00 	cs nop WORD PTR [rax+rax*1+0x0]
   14000226d:	00 00 00 

0000000140002270 <__mingw_GetSectionForAddress>:
   140002270:	48 8b 15 49 21 00 00 	mov    rdx,QWORD PTR [rip+0x2149]        # 1400043c0 <.refptr.__ImageBase>
   140002277:	31 c0                	xor    eax,eax
   140002279:	66 81 3a 4d 5a       	cmp    WORD PTR [rdx],0x5a4d
   14000227e:	75 10                	jne    140002290 <__mingw_GetSectionForAddress+0x20>
   140002280:	4c 63 42 3c          	movsxd r8,DWORD PTR [rdx+0x3c]
   140002284:	49 01 d0             	add    r8,rdx
   140002287:	41 81 38 50 45 00 00 	cmp    DWORD PTR [r8],0x4550
   14000228e:	74 08                	je     140002298 <__mingw_GetSectionForAddress+0x28>
   140002290:	c3                   	ret
   140002291:	0f 1f 80 00 00 00 00 	nop    DWORD PTR [rax+0x0]
   140002298:	66 41 81 78 18 0b 02 	cmp    WORD PTR [r8+0x18],0x20b
   14000229f:	75 ef                	jne    140002290 <__mingw_GetSectionForAddress+0x20>
   1400022a1:	45 0f b7 48 06       	movzx  r9d,WORD PTR [r8+0x6]
   1400022a6:	66 45 85 c9          	test   r9w,r9w
   1400022aa:	74 e4                	je     140002290 <__mingw_GetSectionForAddress+0x20>
   1400022ac:	41 0f b7 40 14       	movzx  eax,WORD PTR [r8+0x14]
   1400022b1:	48 29 d1             	sub    rcx,rdx
   1400022b4:	41 8d 51 ff          	lea    edx,[r9-0x1]
   1400022b8:	48 8d 14 92          	lea    rdx,[rdx+rdx*4]
   1400022bc:	49 8d 44 00 18       	lea    rax,[r8+rax*1+0x18]
   1400022c1:	4c 8d 4c d0 28       	lea    r9,[rax+rdx*8+0x28]
   1400022c6:	66 2e 0f 1f 84 00 00 	cs nop WORD PTR [rax+rax*1+0x0]
   1400022cd:	00 00 00 
   1400022d0:	44 8b 40 0c          	mov    r8d,DWORD PTR [rax+0xc]
   1400022d4:	4c 89 c2             	mov    rdx,r8
   1400022d7:	4c 39 c1             	cmp    rcx,r8
   1400022da:	72 08                	jb     1400022e4 <__mingw_GetSectionForAddress+0x74>
   1400022dc:	03 50 08             	add    edx,DWORD PTR [rax+0x8]
   1400022df:	48 39 d1             	cmp    rcx,rdx
   1400022e2:	72 ac                	jb     140002290 <__mingw_GetSectionForAddress+0x20>
   1400022e4:	48 83 c0 28          	add    rax,0x28
   1400022e8:	4c 39 c8             	cmp    rax,r9
   1400022eb:	75 e3                	jne    1400022d0 <__mingw_GetSectionForAddress+0x60>
   1400022ed:	31 c0                	xor    eax,eax
   1400022ef:	c3                   	ret

00000001400022f0 <__mingw_GetSectionCount>:
   1400022f0:	48 8b 05 c9 20 00 00 	mov    rax,QWORD PTR [rip+0x20c9]        # 1400043c0 <.refptr.__ImageBase>
   1400022f7:	31 c9                	xor    ecx,ecx
   1400022f9:	66 81 38 4d 5a       	cmp    WORD PTR [rax],0x5a4d
   1400022fe:	75 0f                	jne    14000230f <__mingw_GetSectionCount+0x1f>
   140002300:	48 63 50 3c          	movsxd rdx,DWORD PTR [rax+0x3c]
   140002304:	48 01 d0             	add    rax,rdx
   140002307:	81 38 50 45 00 00    	cmp    DWORD PTR [rax],0x4550
   14000230d:	74 09                	je     140002318 <__mingw_GetSectionCount+0x28>
   14000230f:	89 c8                	mov    eax,ecx
   140002311:	c3                   	ret
   140002312:	66 0f 1f 44 00 00    	nop    WORD PTR [rax+rax*1+0x0]
   140002318:	66 81 78 18 0b 02    	cmp    WORD PTR [rax+0x18],0x20b
   14000231e:	75 ef                	jne    14000230f <__mingw_GetSectionCount+0x1f>
   140002320:	0f b7 48 06          	movzx  ecx,WORD PTR [rax+0x6]
   140002324:	89 c8                	mov    eax,ecx
   140002326:	c3                   	ret
   140002327:	66 0f 1f 84 00 00 00 	nop    WORD PTR [rax+rax*1+0x0]
   14000232e:	00 00 

0000000140002330 <_FindPESectionExec>:
   140002330:	4c 8b 05 89 20 00 00 	mov    r8,QWORD PTR [rip+0x2089]        # 1400043c0 <.refptr.__ImageBase>
   140002337:	31 c0                	xor    eax,eax
   140002339:	66 41 81 38 4d 5a    	cmp    WORD PTR [r8],0x5a4d
   14000233f:	75 0f                	jne    140002350 <_FindPESectionExec+0x20>
   140002341:	49 63 50 3c          	movsxd rdx,DWORD PTR [r8+0x3c]
   140002345:	4c 01 c2             	add    rdx,r8
   140002348:	81 3a 50 45 00 00    	cmp    DWORD PTR [rdx],0x4550
   14000234e:	74 08                	je     140002358 <_FindPESectionExec+0x28>
   140002350:	c3                   	ret
   140002351:	0f 1f 80 00 00 00 00 	nop    DWORD PTR [rax+0x0]
   140002358:	66 81 7a 18 0b 02    	cmp    WORD PTR [rdx+0x18],0x20b
   14000235e:	75 f0                	jne    140002350 <_FindPESectionExec+0x20>
   140002360:	44 0f b7 42 06       	movzx  r8d,WORD PTR [rdx+0x6]
   140002365:	66 45 85 c0          	test   r8w,r8w
   140002369:	74 e5                	je     140002350 <_FindPESectionExec+0x20>
   14000236b:	0f b7 42 14          	movzx  eax,WORD PTR [rdx+0x14]
   14000236f:	48 8d 44 02 18       	lea    rax,[rdx+rax*1+0x18]
   140002374:	41 8d 50 ff          	lea    edx,[r8-0x1]
   140002378:	48 8d 14 92          	lea    rdx,[rdx+rdx*4]
   14000237c:	48 8d 54 d0 28       	lea    rdx,[rax+rdx*8+0x28]
   140002381:	0f 1f 40 00          	nop    DWORD PTR [rax+0x0]
   140002385:	66 66 2e 0f 1f 84 00 	data16 cs nop WORD PTR [rax+rax*1+0x0]
   14000238c:	00 00 00 00 
   140002390:	f6 40 27 20          	test   BYTE PTR [rax+0x27],0x20
   140002394:	74 09                	je     14000239f <_FindPESectionExec+0x6f>
   140002396:	48 85 c9             	test   rcx,rcx
   140002399:	74 b5                	je     140002350 <_FindPESectionExec+0x20>
   14000239b:	48 83 e9 01          	sub    rcx,0x1
   14000239f:	48 83 c0 28          	add    rax,0x28
   1400023a3:	48 39 c2             	cmp    rdx,rax
   1400023a6:	75 e8                	jne    140002390 <_FindPESectionExec+0x60>
   1400023a8:	31 c0                	xor    eax,eax
   1400023aa:	c3                   	ret
   1400023ab:	0f 1f 44 00 00       	nop    DWORD PTR [rax+rax*1+0x0]

00000001400023b0 <_GetPEImageBase>:
   1400023b0:	48 8b 05 09 20 00 00 	mov    rax,QWORD PTR [rip+0x2009]        # 1400043c0 <.refptr.__ImageBase>
   1400023b7:	31 d2                	xor    edx,edx
   1400023b9:	66 81 38 4d 5a       	cmp    WORD PTR [rax],0x5a4d
   1400023be:	75 0f                	jne    1400023cf <_GetPEImageBase+0x1f>
   1400023c0:	48 63 48 3c          	movsxd rcx,DWORD PTR [rax+0x3c]
   1400023c4:	48 01 c1             	add    rcx,rax
   1400023c7:	81 39 50 45 00 00    	cmp    DWORD PTR [rcx],0x4550
   1400023cd:	74 09                	je     1400023d8 <_GetPEImageBase+0x28>
   1400023cf:	48 89 d0             	mov    rax,rdx
   1400023d2:	c3                   	ret
   1400023d3:	0f 1f 44 00 00       	nop    DWORD PTR [rax+rax*1+0x0]
   1400023d8:	66 81 79 18 0b 02    	cmp    WORD PTR [rcx+0x18],0x20b
   1400023de:	48 0f 44 d0          	cmove  rdx,rax
   1400023e2:	48 89 d0             	mov    rax,rdx
   1400023e5:	c3                   	ret
   1400023e6:	66 2e 0f 1f 84 00 00 	cs nop WORD PTR [rax+rax*1+0x0]
   1400023ed:	00 00 00 

00000001400023f0 <_IsNonwritableInCurrentImage>:
   1400023f0:	48 8b 15 c9 1f 00 00 	mov    rdx,QWORD PTR [rip+0x1fc9]        # 1400043c0 <.refptr.__ImageBase>
   1400023f7:	31 c0                	xor    eax,eax
   1400023f9:	66 81 3a 4d 5a       	cmp    WORD PTR [rdx],0x5a4d
   1400023fe:	75 10                	jne    140002410 <_IsNonwritableInCurrentImage+0x20>
   140002400:	4c 63 42 3c          	movsxd r8,DWORD PTR [rdx+0x3c]
   140002404:	49 01 d0             	add    r8,rdx
   140002407:	41 81 38 50 45 00 00 	cmp    DWORD PTR [r8],0x4550
   14000240e:	74 08                	je     140002418 <_IsNonwritableInCurrentImage+0x28>
   140002410:	c3                   	ret
   140002411:	0f 1f 80 00 00 00 00 	nop    DWORD PTR [rax+0x0]
   140002418:	66 41 81 78 18 0b 02 	cmp    WORD PTR [r8+0x18],0x20b
   14000241f:	75 ef                	jne    140002410 <_IsNonwritableInCurrentImage+0x20>
   140002421:	45 0f b7 48 06       	movzx  r9d,WORD PTR [r8+0x6]
   140002426:	66 45 85 c9          	test   r9w,r9w
   14000242a:	74 e4                	je     140002410 <_IsNonwritableInCurrentImage+0x20>
   14000242c:	41 0f b7 40 14       	movzx  eax,WORD PTR [r8+0x14]
   140002431:	48 29 d1             	sub    rcx,rdx
   140002434:	41 8d 51 ff          	lea    edx,[r9-0x1]
   140002438:	48 8d 14 92          	lea    rdx,[rdx+rdx*4]
   14000243c:	49 8d 44 00 18       	lea    rax,[r8+rax*1+0x18]
   140002441:	4c 8d 4c d0 28       	lea    r9,[rax+rdx*8+0x28]
   140002446:	66 2e 0f 1f 84 00 00 	cs nop WORD PTR [rax+rax*1+0x0]
   14000244d:	00 00 00 
   140002450:	44 8b 40 0c          	mov    r8d,DWORD PTR [rax+0xc]
   140002454:	4c 89 c2             	mov    rdx,r8
   140002457:	4c 39 c1             	cmp    rcx,r8
   14000245a:	72 08                	jb     140002464 <_IsNonwritableInCurrentImage+0x74>
   14000245c:	03 50 08             	add    edx,DWORD PTR [rax+0x8]
   14000245f:	48 39 d1             	cmp    rcx,rdx
   140002462:	72 0c                	jb     140002470 <_IsNonwritableInCurrentImage+0x80>
   140002464:	48 83 c0 28          	add    rax,0x28
   140002468:	49 39 c1             	cmp    r9,rax
   14000246b:	75 e3                	jne    140002450 <_IsNonwritableInCurrentImage+0x60>
   14000246d:	31 c0                	xor    eax,eax
   14000246f:	c3                   	ret
   140002470:	8b 40 24             	mov    eax,DWORD PTR [rax+0x24]
   140002473:	f7 d0                	not    eax
   140002475:	c1 e8 1f             	shr    eax,0x1f
   140002478:	c3                   	ret
   140002479:	0f 1f 80 00 00 00 00 	nop    DWORD PTR [rax+0x0]

0000000140002480 <__mingw_enum_import_library_names>:
   140002480:	4c 8b 1d 39 1f 00 00 	mov    r11,QWORD PTR [rip+0x1f39]        # 1400043c0 <.refptr.__ImageBase>
   140002487:	45 31 c0             	xor    r8d,r8d
   14000248a:	66 41 81 3b 4d 5a    	cmp    WORD PTR [r11],0x5a4d
   140002490:	75 0f                	jne    1400024a1 <__mingw_enum_import_library_names+0x21>
   140002492:	49 63 53 3c          	movsxd rdx,DWORD PTR [r11+0x3c]
   140002496:	4c 01 da             	add    rdx,r11
   140002499:	81 3a 50 45 00 00    	cmp    DWORD PTR [rdx],0x4550
   14000249f:	74 07                	je     1400024a8 <__mingw_enum_import_library_names+0x28>
   1400024a1:	4c 89 c0             	mov    rax,r8
   1400024a4:	c3                   	ret
   1400024a5:	0f 1f 00             	nop    DWORD PTR [rax]
   1400024a8:	66 81 7a 18 0b 02    	cmp    WORD PTR [rdx+0x18],0x20b
   1400024ae:	75 f1                	jne    1400024a1 <__mingw_enum_import_library_names+0x21>
   1400024b0:	8b 82 90 00 00 00    	mov    eax,DWORD PTR [rdx+0x90]
   1400024b6:	85 c0                	test   eax,eax
   1400024b8:	74 e7                	je     1400024a1 <__mingw_enum_import_library_names+0x21>
   1400024ba:	44 0f b7 4a 06       	movzx  r9d,WORD PTR [rdx+0x6]
   1400024bf:	66 45 85 c9          	test   r9w,r9w
   1400024c3:	74 dc                	je     1400024a1 <__mingw_enum_import_library_names+0x21>
   1400024c5:	44 0f b7 42 14       	movzx  r8d,WORD PTR [rdx+0x14]
   1400024ca:	4a 8d 54 02 18       	lea    rdx,[rdx+r8*1+0x18]
   1400024cf:	45 8d 41 ff          	lea    r8d,[r9-0x1]
   1400024d3:	4f 8d 04 80          	lea    r8,[r8+r8*4]
   1400024d7:	4e 8d 54 c2 28       	lea    r10,[rdx+r8*8+0x28]
   1400024dc:	0f 1f 40 00          	nop    DWORD PTR [rax+0x0]
   1400024e0:	44 8b 4a 0c          	mov    r9d,DWORD PTR [rdx+0xc]
   1400024e4:	4d 89 c8             	mov    r8,r9
   1400024e7:	4c 39 c8             	cmp    rax,r9
   1400024ea:	72 09                	jb     1400024f5 <__mingw_enum_import_library_names+0x75>
   1400024ec:	44 03 42 08          	add    r8d,DWORD PTR [rdx+0x8]
   1400024f0:	4c 39 c0             	cmp    rax,r8
   1400024f3:	72 13                	jb     140002508 <__mingw_enum_import_library_names+0x88>
   1400024f5:	48 83 c2 28          	add    rdx,0x28
   1400024f9:	49 39 d2             	cmp    r10,rdx
   1400024fc:	75 e2                	jne    1400024e0 <__mingw_enum_import_library_names+0x60>
   1400024fe:	45 31 c0             	xor    r8d,r8d
   140002501:	4c 89 c0             	mov    rax,r8
   140002504:	c3                   	ret
   140002505:	0f 1f 00             	nop    DWORD PTR [rax]
   140002508:	4c 01 d8             	add    rax,r11
   14000250b:	eb 0a                	jmp    140002517 <__mingw_enum_import_library_names+0x97>
   14000250d:	0f 1f 00             	nop    DWORD PTR [rax]
   140002510:	83 e9 01             	sub    ecx,0x1
   140002513:	48 83 c0 14          	add    rax,0x14
   140002517:	44 8b 40 04          	mov    r8d,DWORD PTR [rax+0x4]
   14000251b:	45 85 c0             	test   r8d,r8d
   14000251e:	75 07                	jne    140002527 <__mingw_enum_import_library_names+0xa7>
   140002520:	8b 50 0c             	mov    edx,DWORD PTR [rax+0xc]
   140002523:	85 d2                	test   edx,edx
   140002525:	74 d7                	je     1400024fe <__mingw_enum_import_library_names+0x7e>
   140002527:	85 c9                	test   ecx,ecx
   140002529:	7f e5                	jg     140002510 <__mingw_enum_import_library_names+0x90>
   14000252b:	44 8b 40 0c          	mov    r8d,DWORD PTR [rax+0xc]
   14000252f:	4d 01 d8             	add    r8,r11
   140002532:	4c 89 c0             	mov    rax,r8
   140002535:	c3                   	ret
   140002536:	90                   	nop
   140002537:	90                   	nop
   140002538:	90                   	nop
   140002539:	90                   	nop
   14000253a:	90                   	nop
   14000253b:	90                   	nop
   14000253c:	90                   	nop
   14000253d:	90                   	nop
   14000253e:	90                   	nop
   14000253f:	90                   	nop

0000000140002540 <___chkstk_ms>:
   140002540:	51                   	push   rcx
   140002541:	50                   	push   rax
   140002542:	48 3d 00 10 00 00    	cmp    rax,0x1000
   140002548:	48 8d 4c 24 18       	lea    rcx,[rsp+0x18]
   14000254d:	72 19                	jb     140002568 <___chkstk_ms+0x28>
   14000254f:	48 81 e9 00 10 00 00 	sub    rcx,0x1000
   140002556:	48 83 09 00          	or     QWORD PTR [rcx],0x0
   14000255a:	48 2d 00 10 00 00    	sub    rax,0x1000
   140002560:	48 3d 00 10 00 00    	cmp    rax,0x1000
   140002566:	77 e7                	ja     14000254f <___chkstk_ms+0xf>
   140002568:	48 29 c1             	sub    rcx,rax
   14000256b:	48 83 09 00          	or     QWORD PTR [rcx],0x0
   14000256f:	58                   	pop    rax
   140002570:	59                   	pop    rcx
   140002571:	c3                   	ret
   140002572:	90                   	nop
   140002573:	90                   	nop
   140002574:	90                   	nop
   140002575:	90                   	nop
   140002576:	90                   	nop
   140002577:	90                   	nop
   140002578:	90                   	nop
   140002579:	90                   	nop
   14000257a:	90                   	nop
   14000257b:	90                   	nop
   14000257c:	90                   	nop
   14000257d:	90                   	nop
   14000257e:	90                   	nop
   14000257f:	90                   	nop

0000000140002580 <vfprintf>:
   140002580:	57                   	push   rdi
   140002581:	56                   	push   rsi
   140002582:	53                   	push   rbx
   140002583:	48 83 ec 30          	sub    rsp,0x30
   140002587:	48 89 cb             	mov    rbx,rcx
   14000258a:	48 89 d6             	mov    rsi,rdx
   14000258d:	4c 89 c7             	mov    rdi,r8
   140002590:	e8 db 00 00 00       	call   140002670 <__local_stdio_printf_options>
   140002595:	45 31 c9             	xor    r9d,r9d
   140002598:	49 89 f0             	mov    r8,rsi
   14000259b:	48 89 da             	mov    rdx,rbx
   14000259e:	48 8b 08             	mov    rcx,QWORD PTR [rax]
   1400025a1:	48 89 7c 24 20       	mov    QWORD PTR [rsp+0x20],rdi
   1400025a6:	e8 9d 01 00 00       	call   140002748 <__stdio_common_vfprintf>
   1400025ab:	48 83 c4 30          	add    rsp,0x30
   1400025af:	5b                   	pop    rbx
   1400025b0:	5e                   	pop    rsi
   1400025b1:	5f                   	pop    rdi
   1400025b2:	c3                   	ret
   1400025b3:	90                   	nop
   1400025b4:	90                   	nop
   1400025b5:	90                   	nop
   1400025b6:	90                   	nop
   1400025b7:	90                   	nop
   1400025b8:	90                   	nop
   1400025b9:	90                   	nop
   1400025ba:	90                   	nop
   1400025bb:	90                   	nop
   1400025bc:	90                   	nop
   1400025bd:	90                   	nop
   1400025be:	90                   	nop
   1400025bf:	90                   	nop

00000001400025c0 <printf>:
   1400025c0:	57                   	push   rdi
   1400025c1:	56                   	push   rsi
   1400025c2:	53                   	push   rbx
   1400025c3:	48 83 ec 40          	sub    rsp,0x40
   1400025c7:	48 89 cb             	mov    rbx,rcx
   1400025ca:	48 8d 74 24 68       	lea    rsi,[rsp+0x68]
   1400025cf:	b9 01 00 00 00       	mov    ecx,0x1
   1400025d4:	48 89 54 24 68       	mov    QWORD PTR [rsp+0x68],rdx
   1400025d9:	4c 89 44 24 70       	mov    QWORD PTR [rsp+0x70],r8
   1400025de:	4c 89 4c 24 78       	mov    QWORD PTR [rsp+0x78],r9
   1400025e3:	48 89 74 24 38       	mov    QWORD PTR [rsp+0x38],rsi
   1400025e8:	e8 43 01 00 00       	call   140002730 <__acrt_iob_func>
   1400025ed:	48 89 c7             	mov    rdi,rax
   1400025f0:	e8 7b 00 00 00       	call   140002670 <__local_stdio_printf_options>
   1400025f5:	45 31 c9             	xor    r9d,r9d
   1400025f8:	49 89 d8             	mov    r8,rbx
   1400025fb:	48 89 fa             	mov    rdx,rdi
   1400025fe:	48 8b 08             	mov    rcx,QWORD PTR [rax]
   140002601:	48 89 74 24 20       	mov    QWORD PTR [rsp+0x20],rsi
   140002606:	e8 3d 01 00 00       	call   140002748 <__stdio_common_vfprintf>
   14000260b:	48 83 c4 40          	add    rsp,0x40
   14000260f:	5b                   	pop    rbx
   140002610:	5e                   	pop    rsi
   140002611:	5f                   	pop    rdi
   140002612:	c3                   	ret
   140002613:	90                   	nop
   140002614:	90                   	nop
   140002615:	90                   	nop
   140002616:	90                   	nop
   140002617:	90                   	nop
   140002618:	90                   	nop
   140002619:	90                   	nop
   14000261a:	90                   	nop
   14000261b:	90                   	nop
   14000261c:	90                   	nop
   14000261d:	90                   	nop
   14000261e:	90                   	nop
   14000261f:	90                   	nop

0000000140002620 <fprintf>:
   140002620:	57                   	push   rdi
   140002621:	56                   	push   rsi
   140002622:	53                   	push   rbx
   140002623:	48 83 ec 40          	sub    rsp,0x40
   140002627:	48 8d 7c 24 70       	lea    rdi,[rsp+0x70]
   14000262c:	48 89 cb             	mov    rbx,rcx
   14000262f:	48 89 d6             	mov    rsi,rdx
   140002632:	4c 89 44 24 70       	mov    QWORD PTR [rsp+0x70],r8
   140002637:	4c 89 4c 24 78       	mov    QWORD PTR [rsp+0x78],r9
   14000263c:	48 89 7c 24 38       	mov    QWORD PTR [rsp+0x38],rdi
   140002641:	e8 2a 00 00 00       	call   140002670 <__local_stdio_printf_options>
   140002646:	45 31 c9             	xor    r9d,r9d
   140002649:	49 89 f0             	mov    r8,rsi
   14000264c:	48 89 da             	mov    rdx,rbx
   14000264f:	48 8b 08             	mov    rcx,QWORD PTR [rax]
   140002652:	48 89 7c 24 20       	mov    QWORD PTR [rsp+0x20],rdi
   140002657:	e8 ec 00 00 00       	call   140002748 <__stdio_common_vfprintf>
   14000265c:	48 83 c4 40          	add    rsp,0x40
   140002660:	5b                   	pop    rbx
   140002661:	5e                   	pop    rsi
   140002662:	5f                   	pop    rdi
   140002663:	c3                   	ret
   140002664:	90                   	nop
   140002665:	90                   	nop
   140002666:	90                   	nop
   140002667:	90                   	nop
   140002668:	90                   	nop
   140002669:	90                   	nop
   14000266a:	90                   	nop
   14000266b:	90                   	nop
   14000266c:	90                   	nop
   14000266d:	90                   	nop
   14000266e:	90                   	nop
   14000266f:	90                   	nop

0000000140002670 <__local_stdio_printf_options>:
   140002670:	48 8d 05 d9 09 00 00 	lea    rax,[rip+0x9d9]        # 140003050 <options>
   140002677:	c3                   	ret
   140002678:	90                   	nop
   140002679:	90                   	nop
   14000267a:	90                   	nop
   14000267b:	90                   	nop
   14000267c:	90                   	nop
   14000267d:	90                   	nop
   14000267e:	90                   	nop
   14000267f:	90                   	nop

0000000140002680 <__p___initenv>:
   140002680:	48 8b 05 89 1d 00 00 	mov    rax,QWORD PTR [rip+0x1d89]        # 140004410 <.refptr.__imp___initenv>
   140002687:	48 8b 00             	mov    rax,QWORD PTR [rax]
   14000268a:	c3                   	ret
   14000268b:	90                   	nop
   14000268c:	90                   	nop
   14000268d:	90                   	nop
   14000268e:	90                   	nop
   14000268f:	90                   	nop

0000000140002690 <_amsg_exit>:
   140002690:	53                   	push   rbx
   140002691:	48 83 ec 20          	sub    rsp,0x20
   140002695:	89 cb                	mov    ebx,ecx
   140002697:	b9 02 00 00 00       	mov    ecx,0x2
   14000269c:	e8 8f 00 00 00       	call   140002730 <__acrt_iob_func>
   1400026a1:	41 89 d8             	mov    r8d,ebx
   1400026a4:	48 8d 15 c5 1c 00 00 	lea    rdx,[rip+0x1cc5]        # 140004370 <.rdata>
   1400026ab:	48 89 c1             	mov    rcx,rax
   1400026ae:	e8 6d ff ff ff       	call   140002620 <fprintf>
   1400026b3:	b9 ff 00 00 00       	mov    ecx,0xff
   1400026b8:	e8 bb 00 00 00       	call   140002778 <_exit>
   1400026bd:	90                   	nop
   1400026be:	90                   	nop
   1400026bf:	90                   	nop

00000001400026c0 <__getmainargs>:
   1400026c0:	55                   	push   rbp
   1400026c1:	57                   	push   rdi
   1400026c2:	56                   	push   rsi
   1400026c3:	53                   	push   rbx
   1400026c4:	48 83 ec 28          	sub    rsp,0x28
   1400026c8:	44 89 cd             	mov    ebp,r9d
   1400026cb:	48 89 d6             	mov    rsi,rdx
   1400026ce:	4c 89 c3             	mov    rbx,r8
   1400026d1:	48 89 cf             	mov    rdi,rcx
   1400026d4:	e8 a7 00 00 00       	call   140002780 <_initialize_narrow_environment>
   1400026d9:	83 fd 01             	cmp    ebp,0x1
   1400026dc:	b9 01 00 00 00       	mov    ecx,0x1
   1400026e1:	83 d9 ff             	sbb    ecx,0xffffffff
   1400026e4:	e8 7f 00 00 00       	call   140002768 <_configure_narrow_argv>
   1400026e9:	e8 62 00 00 00       	call   140002750 <__p___argc>
   1400026ee:	8b 00                	mov    eax,DWORD PTR [rax]
   1400026f0:	89 07                	mov    DWORD PTR [rdi],eax
   1400026f2:	e8 61 00 00 00       	call   140002758 <__p___argv>
   1400026f7:	48 8b 00             	mov    rax,QWORD PTR [rax]
   1400026fa:	48 89 06             	mov    QWORD PTR [rsi],rax
   1400026fd:	e8 0e 01 00 00       	call   140002810 <__p__environ>
   140002702:	48 8b 00             	mov    rax,QWORD PTR [rax]
   140002705:	48 89 03             	mov    QWORD PTR [rbx],rax
   140002708:	48 8b 44 24 70       	mov    rax,QWORD PTR [rsp+0x70]
   14000270d:	8b 08                	mov    ecx,DWORD PTR [rax]
   14000270f:	e8 dc 00 00 00       	call   1400027f0 <_set_new_mode>
   140002714:	31 c0                	xor    eax,eax
   140002716:	48 83 c4 28          	add    rsp,0x28
   14000271a:	5b                   	pop    rbx
   14000271b:	5e                   	pop    rsi
   14000271c:	5f                   	pop    rdi
   14000271d:	5d                   	pop    rbp
   14000271e:	c3                   	ret
   14000271f:	90                   	nop

0000000140002720 <strlen>:
   140002720:	ff 25 9a 5c 00 00    	jmp    QWORD PTR [rip+0x5c9a]        # 1400083c0 <__imp_strlen>
   140002726:	90                   	nop
   140002727:	90                   	nop

0000000140002728 <strncmp>:
   140002728:	ff 25 9a 5c 00 00    	jmp    QWORD PTR [rip+0x5c9a]        # 1400083c8 <__imp_strncmp>
   14000272e:	90                   	nop
   14000272f:	90                   	nop

0000000140002730 <__acrt_iob_func>:
   140002730:	ff 25 62 5c 00 00    	jmp    QWORD PTR [rip+0x5c62]        # 140008398 <__imp___acrt_iob_func>
   140002736:	90                   	nop
   140002737:	90                   	nop

0000000140002738 <__p__commode>:
   140002738:	ff 25 62 5c 00 00    	jmp    QWORD PTR [rip+0x5c62]        # 1400083a0 <__imp___p__commode>
   14000273e:	90                   	nop
   14000273f:	90                   	nop

0000000140002740 <__p__fmode>:
   140002740:	ff 25 62 5c 00 00    	jmp    QWORD PTR [rip+0x5c62]        # 1400083a8 <__imp___p__fmode>
   140002746:	90                   	nop
   140002747:	90                   	nop

0000000140002748 <__stdio_common_vfprintf>:
   140002748:	ff 25 62 5c 00 00    	jmp    QWORD PTR [rip+0x5c62]        # 1400083b0 <__imp___stdio_common_vfprintf>
   14000274e:	90                   	nop
   14000274f:	90                   	nop

0000000140002750 <__p___argc>:
   140002750:	ff 25 ca 5b 00 00    	jmp    QWORD PTR [rip+0x5bca]        # 140008320 <__imp___p___argc>
   140002756:	90                   	nop
   140002757:	90                   	nop

0000000140002758 <__p___argv>:
   140002758:	ff 25 ca 5b 00 00    	jmp    QWORD PTR [rip+0x5bca]        # 140008328 <__imp___p___argv>
   14000275e:	90                   	nop
   14000275f:	90                   	nop

0000000140002760 <_cexit>:
   140002760:	ff 25 ca 5b 00 00    	jmp    QWORD PTR [rip+0x5bca]        # 140008330 <__imp__cexit>
   140002766:	90                   	nop
   140002767:	90                   	nop

0000000140002768 <_configure_narrow_argv>:
   140002768:	ff 25 ca 5b 00 00    	jmp    QWORD PTR [rip+0x5bca]        # 140008338 <__imp__configure_narrow_argv>
   14000276e:	90                   	nop
   14000276f:	90                   	nop

0000000140002770 <_crt_atexit>:
   140002770:	ff 25 ca 5b 00 00    	jmp    QWORD PTR [rip+0x5bca]        # 140008340 <__imp__crt_atexit>
   140002776:	90                   	nop
   140002777:	90                   	nop

0000000140002778 <_exit>:
   140002778:	ff 25 ca 5b 00 00    	jmp    QWORD PTR [rip+0x5bca]        # 140008348 <__imp__exit>
   14000277e:	90                   	nop
   14000277f:	90                   	nop

0000000140002780 <_initialize_narrow_environment>:
   140002780:	ff 25 ca 5b 00 00    	jmp    QWORD PTR [rip+0x5bca]        # 140008350 <__imp__initialize_narrow_environment>
   140002786:	90                   	nop
   140002787:	90                   	nop

0000000140002788 <__set_app_type>:
   140002788:	ff 25 ca 5b 00 00    	jmp    QWORD PTR [rip+0x5bca]        # 140008358 <__imp___set_app_type>
   14000278e:	90                   	nop
   14000278f:	90                   	nop

0000000140002790 <_initterm>:
   140002790:	ff 25 ca 5b 00 00    	jmp    QWORD PTR [rip+0x5bca]        # 140008360 <__imp__initterm>
   140002796:	90                   	nop
   140002797:	90                   	nop

0000000140002798 <_initterm_e>:
   140002798:	ff 25 ca 5b 00 00    	jmp    QWORD PTR [rip+0x5bca]        # 140008368 <__imp__initterm_e>
   14000279e:	90                   	nop
   14000279f:	90                   	nop

00000001400027a0 <_set_invalid_parameter_handler>:
   1400027a0:	ff 25 ca 5b 00 00    	jmp    QWORD PTR [rip+0x5bca]        # 140008370 <__imp__set_invalid_parameter_handler>
   1400027a6:	90                   	nop
   1400027a7:	90                   	nop

00000001400027a8 <abort>:
   1400027a8:	ff 25 ca 5b 00 00    	jmp    QWORD PTR [rip+0x5bca]        # 140008378 <__imp_abort>
   1400027ae:	90                   	nop
   1400027af:	90                   	nop

00000001400027b0 <exit>:
   1400027b0:	ff 25 ca 5b 00 00    	jmp    QWORD PTR [rip+0x5bca]        # 140008380 <__imp_exit>
   1400027b6:	90                   	nop
   1400027b7:	90                   	nop

00000001400027b8 <signal>:
   1400027b8:	ff 25 ca 5b 00 00    	jmp    QWORD PTR [rip+0x5bca]        # 140008388 <__imp_signal>
   1400027be:	90                   	nop
   1400027bf:	90                   	nop

00000001400027c0 <__C_specific_handler>:
   1400027c0:	ff 25 42 5b 00 00    	jmp    QWORD PTR [rip+0x5b42]        # 140008308 <__imp___C_specific_handler>
   1400027c6:	90                   	nop
   1400027c7:	90                   	nop

00000001400027c8 <memcpy>:
   1400027c8:	ff 25 42 5b 00 00    	jmp    QWORD PTR [rip+0x5b42]        # 140008310 <__imp_memcpy>
   1400027ce:	90                   	nop
   1400027cf:	90                   	nop

00000001400027d0 <__setusermatherr>:
   1400027d0:	ff 25 1a 5b 00 00    	jmp    QWORD PTR [rip+0x5b1a]        # 1400082f0 <__imp___setusermatherr>
   1400027d6:	90                   	nop
   1400027d7:	90                   	nop

00000001400027d8 <lround>:
   1400027d8:	ff 25 1a 5b 00 00    	jmp    QWORD PTR [rip+0x5b1a]        # 1400082f8 <__imp_lround>
   1400027de:	90                   	nop
   1400027df:	90                   	nop

00000001400027e0 <_configthreadlocale>:
   1400027e0:	ff 25 fa 5a 00 00    	jmp    QWORD PTR [rip+0x5afa]        # 1400082e0 <__imp__configthreadlocale>
   1400027e6:	90                   	nop
   1400027e7:	90                   	nop
   1400027e8:	0f 1f 84 00 00 00 00 	nop    DWORD PTR [rax+rax*1+0x0]
   1400027ef:	00 

00000001400027f0 <_set_new_mode>:
   1400027f0:	ff 25 c2 5a 00 00    	jmp    QWORD PTR [rip+0x5ac2]        # 1400082b8 <__imp__set_new_mode>
   1400027f6:	90                   	nop
   1400027f7:	90                   	nop

00000001400027f8 <calloc>:
   1400027f8:	ff 25 c2 5a 00 00    	jmp    QWORD PTR [rip+0x5ac2]        # 1400082c0 <__imp_calloc>
   1400027fe:	90                   	nop
   1400027ff:	90                   	nop

0000000140002800 <free>:
   140002800:	ff 25 c2 5a 00 00    	jmp    QWORD PTR [rip+0x5ac2]        # 1400082c8 <__imp_free>
   140002806:	90                   	nop
   140002807:	90                   	nop

0000000140002808 <malloc>:
   140002808:	ff 25 c2 5a 00 00    	jmp    QWORD PTR [rip+0x5ac2]        # 1400082d0 <__imp_malloc>
   14000280e:	90                   	nop
   14000280f:	90                   	nop

0000000140002810 <__p__environ>:
   140002810:	ff 25 92 5a 00 00    	jmp    QWORD PTR [rip+0x5a92]        # 1400082a8 <__imp___p__environ>
   140002816:	90                   	nop
   140002817:	90                   	nop
   140002818:	0f 1f 84 00 00 00 00 	nop    DWORD PTR [rax+rax*1+0x0]
   14000281f:	00 

0000000140002820 <VirtualQuery>:
   140002820:	ff 25 72 5a 00 00    	jmp    QWORD PTR [rip+0x5a72]        # 140008298 <__imp_VirtualQuery>
   140002826:	90                   	nop
   140002827:	90                   	nop

0000000140002828 <VirtualProtect>:
   140002828:	ff 25 62 5a 00 00    	jmp    QWORD PTR [rip+0x5a62]        # 140008290 <__imp_VirtualProtect>
   14000282e:	90                   	nop
   14000282f:	90                   	nop

0000000140002830 <TlsGetValue>:
   140002830:	ff 25 52 5a 00 00    	jmp    QWORD PTR [rip+0x5a52]        # 140008288 <__imp_TlsGetValue>
   140002836:	90                   	nop
   140002837:	90                   	nop

0000000140002838 <Sleep>:
   140002838:	ff 25 42 5a 00 00    	jmp    QWORD PTR [rip+0x5a42]        # 140008280 <__imp_Sleep>
   14000283e:	90                   	nop
   14000283f:	90                   	nop

0000000140002840 <SetUnhandledExceptionFilter>:
   140002840:	ff 25 32 5a 00 00    	jmp    QWORD PTR [rip+0x5a32]        # 140008278 <__imp_SetUnhandledExceptionFilter>
   140002846:	90                   	nop
   140002847:	90                   	nop

0000000140002848 <LeaveCriticalSection>:
   140002848:	ff 25 22 5a 00 00    	jmp    QWORD PTR [rip+0x5a22]        # 140008270 <__imp_LeaveCriticalSection>
   14000284e:	90                   	nop
   14000284f:	90                   	nop

0000000140002850 <InitializeCriticalSection>:
   140002850:	ff 25 12 5a 00 00    	jmp    QWORD PTR [rip+0x5a12]        # 140008268 <__imp_InitializeCriticalSection>
   140002856:	90                   	nop
   140002857:	90                   	nop

0000000140002858 <GetLastError>:
   140002858:	ff 25 02 5a 00 00    	jmp    QWORD PTR [rip+0x5a02]        # 140008260 <__imp_GetLastError>
   14000285e:	90                   	nop
   14000285f:	90                   	nop

0000000140002860 <EnterCriticalSection>:
   140002860:	ff 25 f2 59 00 00    	jmp    QWORD PTR [rip+0x59f2]        # 140008258 <__imp_EnterCriticalSection>
   140002866:	90                   	nop
   140002867:	90                   	nop

0000000140002868 <DeleteCriticalSection>:
   140002868:	ff 25 e2 59 00 00    	jmp    QWORD PTR [rip+0x59e2]        # 140008250 <__IAT_start__>
   14000286e:	90                   	nop
   14000286f:	90                   	nop

0000000140002870 <main>:
   140002870:	48 83 ec 28          	sub    rsp,0x28
   140002874:	e8 d7 ec ff ff       	call   140001550 <__main>
   140002879:	41 b8 3e 00 00 00    	mov    r8d,0x3e
   14000287f:	48 ba 00 00 00 80 a9 	movabs rdx,0x401f8ca980000000
   140002886:	8c 1f 40 
   140002889:	48 8d 0d 70 17 00 00 	lea    rcx,[rip+0x1770]        # 140004000 <.rdata>
   140002890:	66 48 0f 6e ca       	movq   xmm1,rdx
   140002895:	e8 26 fd ff ff       	call   1400025c0 <printf>
   14000289a:	31 c0                	xor    eax,eax
   14000289c:	48 83 c4 28          	add    rsp,0x28
   1400028a0:	c3                   	ret
   1400028a1:	90                   	nop
   1400028a2:	90                   	nop
   1400028a3:	90                   	nop
   1400028a4:	90                   	nop
   1400028a5:	90                   	nop
   1400028a6:	90                   	nop
   1400028a7:	90                   	nop
   1400028a8:	90                   	nop
   1400028a9:	90                   	nop
   1400028aa:	90                   	nop
   1400028ab:	90                   	nop
   1400028ac:	90                   	nop
   1400028ad:	90                   	nop
   1400028ae:	90                   	nop
   1400028af:	90                   	nop

00000001400028b0 <register_frame_ctor>:
   1400028b0:	e9 7b eb ff ff       	jmp    140001430 <__gcc_register_frame>
   1400028b5:	90                   	nop
   1400028b6:	90                   	nop
   1400028b7:	90                   	nop
   1400028b8:	90                   	nop
   1400028b9:	90                   	nop
   1400028ba:	90                   	nop
   1400028bb:	90                   	nop
   1400028bc:	90                   	nop
   1400028bd:	90                   	nop
   1400028be:	90                   	nop
   1400028bf:	90                   	nop

Disassembly of section .rdata:

0000000140004000 <.rdata>:
   140004000:	25 66 20 73 71       	and    eax,0x71732066
   140004005:	75 61                	jne    140004068 <_tls_used+0x8>
   140004007:	72 65                	jb     14000406e <_tls_used+0xe>
   140004009:	64 20 69 73          	and    BYTE PTR fs:[rcx+0x73],ch
   14000400d:	20 28                	and    BYTE PTR [rax],ch
   14000400f:	72 6f                	jb     140004080 <_tls_used+0x20>
   140004011:	75 6e                	jne    140004081 <_tls_used+0x21>
   140004013:	64 65 64 29 20       	fs gs sub DWORD PTR fs:[rax],esp
   140004018:	25 64 0a 00 00       	and    eax,0xa64
   14000401d:	00 00                	add    BYTE PTR [rax],al
   14000401f:	00 00                	add    BYTE PTR [rax],al
   140004021:	00 a0 ff ff ff df    	add    BYTE PTR [rax-0x20000001],ah
   140004027:	41 00 00             	add    BYTE PTR [r8],al
	...

0000000140004040 <__dyn_tls_init_callback>:
   140004040:	a0 15 00 40 01 00 00 	movabs al,ds:0x1400015
   140004047:	00 00 
	...

0000000140004060 <_tls_used>:
   140004060:	00 90 00 40 01 00    	add    BYTE PTR [rax+0x14000],dl
   140004066:	00 00                	add    BYTE PTR [rax],al
   140004068:	08 90 00 40 01 00    	or     BYTE PTR [rax+0x14000],dl
   14000406e:	00 00                	add    BYTE PTR [rax],al
   140004070:	7c 70                	jl     1400040e2 <.rdata+0x42>
   140004072:	00 40 01             	add    BYTE PTR [rax+0x1],al
   140004075:	00 00                	add    BYTE PTR [rax],al
   140004077:	00 e0                	add    al,ah
   140004079:	4b 00 40 01          	rex.WXB add BYTE PTR [r8+0x1],al
	...

00000001400040a0 <.rdata>:
   1400040a0:	41 72 67             	rex.B jb 14000410a <.rdata+0x6a>
   1400040a3:	75 6d                	jne    140004112 <.rdata+0x72>
   1400040a5:	65 6e                	outs   dx,BYTE PTR gs:[rsi]
   1400040a7:	74 20                	je     1400040c9 <.rdata+0x29>
   1400040a9:	64 6f                	outs   dx,DWORD PTR fs:[rsi]
   1400040ab:	6d                   	ins    DWORD PTR [rdi],dx
   1400040ac:	61                   	(bad)
   1400040ad:	69 6e 20 65 72 72 6f 	imul   ebp,DWORD PTR [rsi+0x20],0x6f727265
   1400040b4:	72 20                	jb     1400040d6 <.rdata+0x36>
   1400040b6:	28 44 4f 4d          	sub    BYTE PTR [rdi+rcx*2+0x4d],al
   1400040ba:	41                   	rex.B
   1400040bb:	49                   	rex.WB
   1400040bc:	4e 29 00             	rex.WRX sub QWORD PTR [rax],r8
   1400040bf:	41 72 67             	rex.B jb 140004129 <.rdata+0x89>
   1400040c2:	75 6d                	jne    140004131 <.rdata+0x91>
   1400040c4:	65 6e                	outs   dx,BYTE PTR gs:[rsi]
   1400040c6:	74 20                	je     1400040e8 <.rdata+0x48>
   1400040c8:	73 69                	jae    140004133 <.rdata+0x93>
   1400040ca:	6e                   	outs   dx,BYTE PTR [rsi]
   1400040cb:	67 75 6c             	addr32 jne 14000413a <.rdata+0x9a>
   1400040ce:	61                   	(bad)
   1400040cf:	72 69                	jb     14000413a <.rdata+0x9a>
   1400040d1:	74 79                	je     14000414c <.rdata+0xac>
   1400040d3:	20 28                	and    BYTE PTR [rax],ch
   1400040d5:	53                   	push   rbx
   1400040d6:	49                   	rex.WB
   1400040d7:	47                   	rex.RXB
   1400040d8:	4e 29 00             	rex.WRX sub QWORD PTR [rax],r8
   1400040db:	00 00                	add    BYTE PTR [rax],al
   1400040dd:	00 00                	add    BYTE PTR [rax],al
   1400040df:	00 4f 76             	add    BYTE PTR [rdi+0x76],cl
   1400040e2:	65 72 66             	gs jb  14000414b <.rdata+0xab>
   1400040e5:	6c                   	ins    BYTE PTR [rdi],dx
   1400040e6:	6f                   	outs   dx,DWORD PTR [rsi]
   1400040e7:	77 20                	ja     140004109 <.rdata+0x69>
   1400040e9:	72 61                	jb     14000414c <.rdata+0xac>
   1400040eb:	6e                   	outs   dx,BYTE PTR [rsi]
   1400040ec:	67 65 20 65 72       	and    BYTE PTR gs:[ebp+0x72],ah
   1400040f1:	72 6f                	jb     140004162 <.rdata+0xc2>
   1400040f3:	72 20                	jb     140004115 <.rdata+0x75>
   1400040f5:	28 4f 56             	sub    BYTE PTR [rdi+0x56],cl
   1400040f8:	45 52                	rex.RB push r10
   1400040fa:	46                   	rex.RX
   1400040fb:	4c                   	rex.WR
   1400040fc:	4f 57                	rex.WRXB push r15
   1400040fe:	29 00                	sub    DWORD PTR [rax],eax
   140004100:	50                   	push   rax
   140004101:	61                   	(bad)
   140004102:	72 74                	jb     140004178 <.rdata+0xd8>
   140004104:	69 61 6c 20 6c 6f 73 	imul   esp,DWORD PTR [rcx+0x6c],0x736f6c20
   14000410b:	73 20                	jae    14000412d <.rdata+0x8d>
   14000410d:	6f                   	outs   dx,DWORD PTR [rsi]
   14000410e:	66 20 73 69          	data16 and BYTE PTR [rbx+0x69],dh
   140004112:	67 6e                	outs   dx,BYTE PTR [esi]
   140004114:	69 66 69 63 61 6e 63 	imul   esp,DWORD PTR [rsi+0x69],0x636e6163
   14000411b:	65 20 28             	and    BYTE PTR gs:[rax],ch
   14000411e:	50                   	push   rax
   14000411f:	4c                   	rex.WR
   140004120:	4f 53                	rex.WRXB push r11
   140004122:	53                   	push   rbx
   140004123:	29 00                	sub    DWORD PTR [rax],eax
   140004125:	00 00                	add    BYTE PTR [rax],al
   140004127:	00 54 6f 74          	add    BYTE PTR [rdi+rbp*2+0x74],dl
   14000412b:	61                   	(bad)
   14000412c:	6c                   	ins    BYTE PTR [rdi],dx
   14000412d:	20 6c 6f 73          	and    BYTE PTR [rdi+rbp*2+0x73],ch
   140004131:	73 20                	jae    140004153 <.rdata+0xb3>
   140004133:	6f                   	outs   dx,DWORD PTR [rsi]
   140004134:	66 20 73 69          	data16 and BYTE PTR [rbx+0x69],dh
   140004138:	67 6e                	outs   dx,BYTE PTR [esi]
   14000413a:	69 66 69 63 61 6e 63 	imul   esp,DWORD PTR [rsi+0x69],0x636e6163
   140004141:	65 20 28             	and    BYTE PTR gs:[rax],ch
   140004144:	54                   	push   rsp
   140004145:	4c                   	rex.WR
   140004146:	4f 53                	rex.WRXB push r11
   140004148:	53                   	push   rbx
   140004149:	29 00                	sub    DWORD PTR [rax],eax
   14000414b:	00 00                	add    BYTE PTR [rax],al
   14000414d:	00 00                	add    BYTE PTR [rax],al
   14000414f:	00 54 68 65          	add    BYTE PTR [rax+rbp*2+0x65],dl
   140004153:	20 72 65             	and    BYTE PTR [rdx+0x65],dh
   140004156:	73 75                	jae    1400041cd <.rdata+0x12d>
   140004158:	6c                   	ins    BYTE PTR [rdi],dx
   140004159:	74 20                	je     14000417b <.rdata+0xdb>
   14000415b:	69 73 20 74 6f 6f 20 	imul   esi,DWORD PTR [rbx+0x20],0x206f6f74
   140004162:	73 6d                	jae    1400041d1 <.rdata+0x131>
   140004164:	61                   	(bad)
   140004165:	6c                   	ins    BYTE PTR [rdi],dx
   140004166:	6c                   	ins    BYTE PTR [rdi],dx
   140004167:	20 74 6f 20          	and    BYTE PTR [rdi+rbp*2+0x20],dh
   14000416b:	62 65 20 72 65       	(bad)
   140004170:	70 72                	jo     1400041e4 <.rdata+0x4>
   140004172:	65 73 65             	gs jae 1400041da <.rdata+0x13a>
   140004175:	6e                   	outs   dx,BYTE PTR [rsi]
   140004176:	74 65                	je     1400041dd <.rdata+0x13d>
   140004178:	64 20 28             	and    BYTE PTR fs:[rax],ch
   14000417b:	55                   	push   rbp
   14000417c:	4e                   	rex.WRX
   14000417d:	44                   	rex.R
   14000417e:	45 52                	rex.RB push r10
   140004180:	46                   	rex.RX
   140004181:	4c                   	rex.WR
   140004182:	4f 57                	rex.WRXB push r15
   140004184:	29 00                	sub    DWORD PTR [rax],eax
   140004186:	55                   	push   rbp
   140004187:	6e                   	outs   dx,BYTE PTR [rsi]
   140004188:	6b 6e 6f 77          	imul   ebp,DWORD PTR [rsi+0x6f],0x77
   14000418c:	6e                   	outs   dx,BYTE PTR [rsi]
   14000418d:	20 65 72             	and    BYTE PTR [rbp+0x72],ah
   140004190:	72 6f                	jb     140004201 <.rdata+0x21>
   140004192:	72 00                	jb     140004194 <.rdata+0xf4>
   140004194:	00 00                	add    BYTE PTR [rax],al
   140004196:	00 00                	add    BYTE PTR [rax],al
   140004198:	5f                   	pop    rdi
   140004199:	6d                   	ins    DWORD PTR [rdi],dx
   14000419a:	61                   	(bad)
   14000419b:	74 68                	je     140004205 <.rdata+0x25>
   14000419d:	65 72 72             	gs jb  140004212 <.rdata+0x32>
   1400041a0:	28 29                	sub    BYTE PTR [rcx],ch
   1400041a2:	3a 20                	cmp    ah,BYTE PTR [rax]
   1400041a4:	25 73 20 69 6e       	and    eax,0x6e692073
   1400041a9:	20 25 73 28 25 67    	and    BYTE PTR [rip+0x67252873],ah        # 1a7256a22 <.debug_rnglists+0x6723396c>
   1400041af:	2c 20                	sub    al,0x20
   1400041b1:	25 67 29 20 20       	and    eax,0x20202967
   1400041b6:	28 72 65             	sub    BYTE PTR [rdx+0x65],dh
   1400041b9:	74 76                	je     140004231 <.rdata+0x51>
   1400041bb:	61                   	(bad)
   1400041bc:	6c                   	ins    BYTE PTR [rdi],dx
   1400041bd:	3d 25 67 29 0a       	cmp    eax,0xa296725
   1400041c2:	00 00                	add    BYTE PTR [rax],al
   1400041c4:	58                   	pop    rax
   1400041c5:	d5 ff ff 0c d5 ff ff 	ud0    r25,QWORD PTR [r26*8-0x2b5b0001]
   1400041cc:	a4 d4 
   1400041ce:	ff                   	(bad)
   1400041cf:	ff 2c d5 ff ff 3c d5 	jmp    FWORD PTR [rdx*8-0x2ac30001]
   1400041d6:	ff                   	(bad)
   1400041d7:	ff 4c d5 ff          	dec    DWORD PTR [rbp+rdx*8-0x1]
   1400041db:	ff 1c d5 ff ff   	call   FWORD PTR [rdx*8+0x694dffff]

00000001400041e0 <.rdata>:
   1400041e0:	4d 69 6e 67 77 2d 77 	imul   r13,QWORD PTR [r14+0x67],0x36772d77
   1400041e7:	36 
   1400041e8:	34 20                	xor    al,0x20
   1400041ea:	72 75                	jb     140004261 <.rdata+0x81>
   1400041ec:	6e                   	outs   dx,BYTE PTR [rsi]
   1400041ed:	74 69                	je     140004258 <.rdata+0x78>
   1400041ef:	6d                   	ins    DWORD PTR [rdi],dx
   1400041f0:	65 20 66 61          	and    BYTE PTR gs:[rsi+0x61],ah
   1400041f4:	69 6c 75 72 65 3a 0a 	imul   ebp,DWORD PTR [rbp+rsi*2+0x72],0xa3a65
   1400041fb:	00 
   1400041fc:	00 00                	add    BYTE PTR [rax],al
   1400041fe:	00 00                	add    BYTE PTR [rax],al
   140004200:	41                   	rex.B
   140004201:	64 64 72 65          	fs fs jb 14000426a <.rdata+0x8a>
   140004205:	73 73                	jae    14000427a <.rdata+0x9a>
   140004207:	20 25 70 20 68 61    	and    BYTE PTR [rip+0x61682070],ah        # 1a168627d <.debug_rnglists+0x616631c7>
   14000420d:	73 20                	jae    14000422f <.rdata+0x4f>
   14000420f:	6e                   	outs   dx,BYTE PTR [rsi]
   140004210:	6f                   	outs   dx,DWORD PTR [rsi]
   140004211:	20 69 6d             	and    BYTE PTR [rcx+0x6d],ch
   140004214:	61                   	(bad)
   140004215:	67 65 2d 73 65 63 74 	addr32 gs sub eax,0x74636573
   14000421c:	69 6f 6e 00 20 20 56 	imul   ebp,DWORD PTR [rdi+0x6e],0x56202000
   140004223:	69 72 74 75 61 6c 51 	imul   esi,DWORD PTR [rdx+0x74],0x516c6175
   14000422a:	75 65                	jne    140004291 <.rdata+0xb1>
   14000422c:	72 79                	jb     1400042a7 <.rdata+0xc7>
   14000422e:	20 66 61             	and    BYTE PTR [rsi+0x61],ah
   140004231:	69 6c 65 64 20 66 6f 	imul   ebp,DWORD PTR [rbp+riz*2+0x64],0x726f6620
   140004238:	72 
   140004239:	20 25 64 20 62 79    	and    BYTE PTR [rip+0x79622064],ah        # 1b96262a3 <.debug_rnglists+0x796031ed>
   14000423f:	74 65                	je     1400042a6 <.rdata+0xc6>
   140004241:	73 20                	jae    140004263 <.rdata+0x83>
   140004243:	61                   	(bad)
   140004244:	74 20                	je     140004266 <.rdata+0x86>
   140004246:	61                   	(bad)
   140004247:	64 64 72 65          	fs fs jb 1400042b0 <.rdata+0xd0>
   14000424b:	73 73                	jae    1400042c0 <.rdata+0xe0>
   14000424d:	20 25 70 00 00 00    	and    BYTE PTR [rip+0x70],ah        # 1400042c3 <.rdata+0xe3>
   140004253:	00 00                	add    BYTE PTR [rax],al
   140004255:	00 00                	add    BYTE PTR [rax],al
   140004257:	00 20                	add    BYTE PTR [rax],ah
   140004259:	20 56 69             	and    BYTE PTR [rsi+0x69],dl
   14000425c:	72 74                	jb     1400042d2 <.rdata+0xf2>
   14000425e:	75 61                	jne    1400042c1 <.rdata+0xe1>
   140004260:	6c                   	ins    BYTE PTR [rdi],dx
   140004261:	50                   	push   rax
   140004262:	72 6f                	jb     1400042d3 <.rdata+0xf3>
   140004264:	74 65                	je     1400042cb <.rdata+0xeb>
   140004266:	63 74 20 66          	movsxd esi,DWORD PTR [rax+riz*1+0x66]
   14000426a:	61                   	(bad)
   14000426b:	69 6c 65 64 20 77 69 	imul   ebp,DWORD PTR [rbp+riz*2+0x64],0x74697720
   140004272:	74 
   140004273:	68 20 63 6f 64       	push   0x646f6320
   140004278:	65 20 30             	and    BYTE PTR gs:[rax],dh
   14000427b:	78 25                	js     1400042a2 <.rdata+0xc2>
   14000427d:	78 00                	js     14000427f <.rdata+0x9f>
   14000427f:	00 20                	add    BYTE PTR [rax],ah
   140004281:	20 55 6e             	and    BYTE PTR [rbp+0x6e],dl
   140004284:	6b 6e 6f 77          	imul   ebp,DWORD PTR [rsi+0x6f],0x77
   140004288:	6e                   	outs   dx,BYTE PTR [rsi]
   140004289:	20 70 73             	and    BYTE PTR [rax+0x73],dh
   14000428c:	65 75 64             	gs jne 1400042f3 <.rdata+0x113>
   14000428f:	6f                   	outs   dx,DWORD PTR [rsi]
   140004290:	20 72 65             	and    BYTE PTR [rdx+0x65],dh
   140004293:	6c                   	ins    BYTE PTR [rdi],dx
   140004294:	6f                   	outs   dx,DWORD PTR [rsi]
   140004295:	63 61 74             	movsxd esp,DWORD PTR [rcx+0x74]
   140004298:	69 6f 6e 20 70 72 6f 	imul   ebp,DWORD PTR [rdi+0x6e],0x6f727020
   14000429f:	74 6f                	je     140004310 <.rdata+0x130>
   1400042a1:	63 6f 6c             	movsxd ebp,DWORD PTR [rdi+0x6c]
   1400042a4:	20 76 65             	and    BYTE PTR [rsi+0x65],dh
   1400042a7:	72 73                	jb     14000431c <.rdata+0x13c>
   1400042a9:	69 6f 6e 20 25 64 2e 	imul   ebp,DWORD PTR [rdi+0x6e],0x2e642520
   1400042b0:	0a 00                	or     al,BYTE PTR [rax]
   1400042b2:	00 00                	add    BYTE PTR [rax],al
   1400042b4:	00 00                	add    BYTE PTR [rax],al
   1400042b6:	00 00                	add    BYTE PTR [rax],al
   1400042b8:	20 20                	and    BYTE PTR [rax],ah
   1400042ba:	55                   	push   rbp
   1400042bb:	6e                   	outs   dx,BYTE PTR [rsi]
   1400042bc:	6b 6e 6f 77          	imul   ebp,DWORD PTR [rsi+0x6f],0x77
   1400042c0:	6e                   	outs   dx,BYTE PTR [rsi]
   1400042c1:	20 70 73             	and    BYTE PTR [rax+0x73],dh
   1400042c4:	65 75 64             	gs jne 14000432b <.rdata+0x14b>
   1400042c7:	6f                   	outs   dx,DWORD PTR [rsi]
   1400042c8:	20 72 65             	and    BYTE PTR [rdx+0x65],dh
   1400042cb:	6c                   	ins    BYTE PTR [rdi],dx
   1400042cc:	6f                   	outs   dx,DWORD PTR [rsi]
   1400042cd:	63 61 74             	movsxd esp,DWORD PTR [rcx+0x74]
   1400042d0:	69 6f 6e 20 62 69 74 	imul   ebp,DWORD PTR [rdi+0x6e],0x74696220
   1400042d7:	20 73 69             	and    BYTE PTR [rbx+0x69],dh
   1400042da:	7a 65                	jp     140004341 <.rdata+0x1>
   1400042dc:	20 25 64 2e 0a 00    	and    BYTE PTR [rip+0xa2e64],ah        # 1400a7146 <.debug_rnglists+0x84090>
   1400042e2:	00 00                	add    BYTE PTR [rax],al
   1400042e4:	00 00                	add    BYTE PTR [rax],al
   1400042e6:	00 00                	add    BYTE PTR [rax],al
   1400042e8:	25 64 20 62 69       	and    eax,0x69622064
   1400042ed:	74 20                	je     14000430f <.rdata+0x12f>
   1400042ef:	70 73                	jo     140004364 <.rdata+0x24>
   1400042f1:	65 75 64             	gs jne 140004358 <.rdata+0x18>
   1400042f4:	6f                   	outs   dx,DWORD PTR [rsi]
   1400042f5:	20 72 65             	and    BYTE PTR [rdx+0x65],dh
   1400042f8:	6c                   	ins    BYTE PTR [rdi],dx
   1400042f9:	6f                   	outs   dx,DWORD PTR [rsi]
   1400042fa:	63 61 74             	movsxd esp,DWORD PTR [rcx+0x74]
   1400042fd:	69 6f 6e 20 61 74 20 	imul   ebp,DWORD PTR [rdi+0x6e],0x20746120
   140004304:	25 70 20 6f 75       	and    eax,0x756f2070
   140004309:	74 20                	je     14000432b <.rdata+0x14b>
   14000430b:	6f                   	outs   dx,DWORD PTR [rsi]
   14000430c:	66 20 72 61          	data16 and BYTE PTR [rdx+0x61],dh
   140004310:	6e                   	outs   dx,BYTE PTR [rsi]
   140004311:	67 65 2c 20          	addr32 gs sub al,0x20
   140004315:	74 61                	je     140004378 <.rdata+0x8>
   140004317:	72 67                	jb     140004380 <.rdata+0x10>
   140004319:	65 74 69             	gs je  140004385 <.rdata+0x15>
   14000431c:	6e                   	outs   dx,BYTE PTR [rsi]
   14000431d:	67 20 25 70 2c 20 79 	and    BYTE PTR [eip+0x79202c70],ah        # 1b9206f94 <.debug_rnglists+0x791e3ede>
   140004324:	69 65 6c 64 69 6e 67 	imul   esp,DWORD PTR [rbp+0x6c],0x676e6964
   14000432b:	20 74 68 65          	and    BYTE PTR [rax+rbp*2+0x65],dh
   14000432f:	20 76 61             	and    BYTE PTR [rsi+0x61],dh
   140004332:	6c                   	ins    BYTE PTR [rdi],dx
   140004333:	75 65                	jne    14000439a <.refptr._CRT_MT+0xa>
   140004335:	20 25 70 2e 0a 00    	and    BYTE PTR [rip+0xa2e70],ah        # 1400a71ab <.debug_rnglists+0x840f5>
   14000433b:	00 00                	add    BYTE PTR [rax],al
   14000433d:	00 00                	add    BYTE PTR [rax],al
	...

0000000140004340 <.rdata>:
   140004340:	f0 d9 ff             	lock fcos
   140004343:	ff f0                	push   rax
   140004345:	d9 ff                	fcos
   140004347:	ff f0                	push   rax
   140004349:	d9 ff                	fcos
   14000434b:	ff f0                	push   rax
   14000434d:	d9 ff                	fcos
   14000434f:	ff f0                	push   rax
   140004351:	d9 ff                	fcos
   140004353:	ff 44 da ff          	inc    DWORD PTR [rdx+rbx*8-0x1]
   140004357:	ff f0                	push   rax
   140004359:	d9 ff                	fcos
   14000435b:	ff b0 da ff ff 44    	push   QWORD PTR [rax+0x44ffffda]
   140004361:	da ff                	(bad)
   140004363:	ff                   	(bad)
   140004364:	7e da                	jle    140004340 <.rdata>
   140004366:	ff                   	(bad)
   140004367:	ff 00                	inc    DWORD PTR [rax]
   140004369:	00 00                	add    BYTE PTR [rax],al
   14000436b:	00 00                	add    BYTE PTR [rax],al
   14000436d:	00 00                	add    BYTE PTR [rax],al
	...

0000000140004370 <.rdata>:
   140004370:	72 75                	jb     1400043e7 <.refptr.__RUNTIME_PSEUDO_RELOC_LIST__+0x7>
   140004372:	6e                   	outs   dx,BYTE PTR [rsi]
   140004373:	74 69                	je     1400043de <.refptr.__RUNTIME_PSEUDO_RELOC_LIST_END__+0xe>
   140004375:	6d                   	ins    DWORD PTR [rdi],dx
   140004376:	65 20 65 72          	and    BYTE PTR gs:[rbp+0x72],ah
   14000437a:	72 6f                	jb     1400043eb <.refptr.__RUNTIME_PSEUDO_RELOC_LIST__+0xb>
   14000437c:	72 20                	jb     14000439e <.refptr._CRT_MT+0xe>
   14000437e:	25 64 0a 00 00       	and    eax,0xa64
	...

0000000140004390 <.refptr._CRT_MT>:
   140004390:	30 30                	xor    BYTE PTR [rax],dh
   140004392:	00 40 01             	add    BYTE PTR [rax+0x1],al
	...

00000001400043a0 <.refptr._MINGW_INSTALL_DEBUG_MATHERR>:
   1400043a0:	40 30 00             	rex xor BYTE PTR [rax],al
   1400043a3:	40 01 00             	rex add DWORD PTR [rax],eax
	...

00000001400043b0 <.refptr.__CTOR_LIST__>:
   1400043b0:	90                   	nop
   1400043b1:	4b 00 40 01          	rex.WXB add BYTE PTR [r8+0x1],al
	...

00000001400043c0 <.refptr.__ImageBase>:
   1400043c0:	00 00                	add    BYTE PTR [rax],al
   1400043c2:	00 40 01             	add    BYTE PTR [rax+0x1],al
	...

00000001400043d0 <.refptr.__RUNTIME_PSEUDO_RELOC_LIST_END__>:
   1400043d0:	90                   	nop
   1400043d1:	4b 00 40 01          	rex.WXB add BYTE PTR [r8+0x1],al
	...

00000001400043e0 <.refptr.__RUNTIME_PSEUDO_RELOC_LIST__>:
   1400043e0:	90                   	nop
   1400043e1:	4b 00 40 01          	rex.WXB add BYTE PTR [r8+0x1],al
	...

00000001400043f0 <.refptr.__dyn_tls_init_callback>:
   1400043f0:	40                   	rex
   1400043f1:	40 00 40 01          	rex add BYTE PTR [rax+0x1],al
	...

0000000140004400 <.refptr.__globallocalestatus>:
   140004400:	20 30                	and    BYTE PTR [rax],dh
   140004402:	00 40 01             	add    BYTE PTR [rax+0x1],al
	...

0000000140004410 <.refptr.__imp___initenv>:
   140004410:	90                   	nop
   140004411:	30 00                	xor    BYTE PTR [rax],al
   140004413:	40 01 00             	rex add DWORD PTR [rax],eax
	...

0000000140004420 <.refptr.__mingw_app_type>:
   140004420:	90                   	nop
   140004421:	70 00                	jo     140004423 <.refptr.__mingw_app_type+0x3>
   140004423:	40 01 00             	rex add DWORD PTR [rax],eax
	...

0000000140004430 <.refptr.__mingw_initltsdrot_force>:
   140004430:	78 70                	js     1400044a2 <.refptr.__xc_z+0x2>
   140004432:	00 40 01             	add    BYTE PTR [rax+0x1],al
	...

0000000140004440 <.refptr.__mingw_initltsdyn_force>:
   140004440:	74 70                	je     1400044b2 <.refptr.__xi_a+0x2>
   140004442:	00 40 01             	add    BYTE PTR [rax+0x1],al
	...

0000000140004450 <.refptr.__mingw_initltssuo_force>:
   140004450:	70 70                	jo     1400044c2 <.refptr.__xi_z+0x2>
   140004452:	00 40 01             	add    BYTE PTR [rax+0x1],al
	...

0000000140004460 <.refptr.__mingw_oldexcpt_handler>:
   140004460:	d0 70 00             	shl    BYTE PTR [rax+0x0],1
   140004463:	40 01 00             	rex add DWORD PTR [rax],eax
	...

0000000140004470 <.refptr.__native_startup_lock>:
   140004470:	40 70 00             	rex jo 140004473 <.refptr.__native_startup_lock+0x3>
   140004473:	40 01 00             	rex add DWORD PTR [rax],eax
	...

0000000140004480 <.refptr.__native_startup_state>:
   140004480:	48 70 00             	rex.W jo 140004483 <.refptr.__native_startup_state+0x3>
   140004483:	40 01 00             	rex add DWORD PTR [rax],eax
	...

0000000140004490 <.refptr.__xc_a>:
   140004490:	b8 4b 00 40 01       	mov    eax,0x140004b
	...

00000001400044a0 <.refptr.__xc_z>:
   1400044a0:	c0 4b 00 40          	ror    BYTE PTR [rbx+0x0],0x40
   1400044a4:	01 00                	add    DWORD PTR [rax],eax
	...

00000001400044b0 <.refptr.__xi_a>:
   1400044b0:	c8 4b 00 40          	enter  0x4b,0x40
   1400044b4:	01 00                	add    DWORD PTR [rax],eax
	...

00000001400044c0 <.refptr.__xi_z>:
   1400044c0:	d0 4b 00             	ror    BYTE PTR [rbx+0x0],1
   1400044c3:	40 01 00             	rex add DWORD PTR [rax],eax
	...

00000001400044d0 <.refptr._commode>:
   1400044d0:	80 70 00 40          	xor    BYTE PTR [rax+0x0],0x40
   1400044d4:	01 00                	add    DWORD PTR [rax],eax
	...

00000001400044e0 <.refptr._dowildcard>:
   1400044e0:	50                   	push   rax
   1400044e1:	70 00                	jo     1400044e3 <.refptr._dowildcard+0x3>
   1400044e3:	40 01 00             	rex add DWORD PTR [rax],eax
	...

00000001400044f0 <.refptr._fmode>:
   1400044f0:	c0 70 00 40          	shl    BYTE PTR [rax+0x0],0x40
   1400044f4:	01 00                	add    DWORD PTR [rax],eax
	...

0000000140004500 <.refptr._gnu_exception_handler>:
   140004500:	e0 1c                	loopne 14000451e <.refptr._matherr+0xe>
   140004502:	00 40 01             	add    BYTE PTR [rax+0x1],al
	...

0000000140004510 <.refptr._matherr>:
   140004510:	30 16                	xor    BYTE PTR [rsi],dl
   140004512:	00 40 01             	add    BYTE PTR [rax+0x1],al
	...

0000000140004520 <.refptr._newmode>:
   140004520:	60                   	(bad)
   140004521:	70 00                	jo     140004523 <.refptr._newmode+0x3>
   140004523:	40 01 00             	rex add DWORD PTR [rax],eax
	...

0000000140004530 <.rdata$zzz>:
   140004530:	47                   	rex.RXB
   140004531:	43                   	rex.XB
   140004532:	43 3a 20             	rex.XB cmp spl,BYTE PTR [r8]
   140004535:	28 52 65             	sub    BYTE PTR [rdx+0x65],dl
   140004538:	76 38                	jbe    140004572 <.rdata$zzz+0x12>
   14000453a:	2c 20                	sub    al,0x20
   14000453c:	42 75 69             	rex.X jne 1400045a8 <.rdata$zzz+0x18>
   14000453f:	6c                   	ins    BYTE PTR [rdi],dx
   140004540:	74 20                	je     140004562 <.rdata$zzz+0x2>
   140004542:	62 79 20 4d 53       	(bad)
   140004547:	59                   	pop    rcx
   140004548:	53                   	push   rbx
   140004549:	32 20                	xor    ah,BYTE PTR [rax]
   14000454b:	70 72                	jo     1400045bf <.rdata$zzz+0x2f>
   14000454d:	6f                   	outs   dx,DWORD PTR [rsi]
   14000454e:	6a 65                	push   0x65
   140004550:	63 74 29 20          	movsxd esi,DWORD PTR [rcx+rbp*1+0x20]
   140004554:	31 35 2e 32 2e 30    	xor    DWORD PTR [rip+0x302e322e],esi        # 1702e7788 <.debug_rnglists+0x302c46d2>
   14000455a:	00 00                	add    BYTE PTR [rax],al
   14000455c:	00 00                	add    BYTE PTR [rax],al
	...

0000000140004560 <.rdata$zzz>:
   140004560:	47                   	rex.RXB
   140004561:	43                   	rex.XB
   140004562:	43 3a 20             	rex.XB cmp spl,BYTE PTR [r8]
   140004565:	28 52 65             	sub    BYTE PTR [rdx+0x65],dl
   140004568:	76 38                	jbe    1400045a2 <.rdata$zzz+0x12>
   14000456a:	2c 20                	sub    al,0x20
   14000456c:	42 75 69             	rex.X jne 1400045d8 <.rdata$zzz+0x18>
   14000456f:	6c                   	ins    BYTE PTR [rdi],dx
   140004570:	74 20                	je     140004592 <.rdata$zzz+0x2>
   140004572:	62 79 20 4d 53       	(bad)
   140004577:	59                   	pop    rcx
   140004578:	53                   	push   rbx
   140004579:	32 20                	xor    ah,BYTE PTR [rax]
   14000457b:	70 72                	jo     1400045ef <.rdata$zzz+0x2f>
   14000457d:	6f                   	outs   dx,DWORD PTR [rsi]
   14000457e:	6a 65                	push   0x65
   140004580:	63 74 29 20          	movsxd esi,DWORD PTR [rcx+rbp*1+0x20]
   140004584:	31 35 2e 32 2e 30    	xor    DWORD PTR [rip+0x302e322e],esi        # 1702e77b8 <.debug_rnglists+0x302c4702>
   14000458a:	00 00                	add    BYTE PTR [rax],al
   14000458c:	00 00                	add    BYTE PTR [rax],al
	...

0000000140004590 <.rdata$zzz>:
   140004590:	47                   	rex.RXB
   140004591:	43                   	rex.XB
   140004592:	43 3a 20             	rex.XB cmp spl,BYTE PTR [r8]
   140004595:	28 52 65             	sub    BYTE PTR [rdx+0x65],dl
   140004598:	76 38                	jbe    1400045d2 <.rdata$zzz+0x12>
   14000459a:	2c 20                	sub    al,0x20
   14000459c:	42 75 69             	rex.X jne 140004608 <.rdata$zzz+0x18>
   14000459f:	6c                   	ins    BYTE PTR [rdi],dx
   1400045a0:	74 20                	je     1400045c2 <.rdata$zzz+0x2>
   1400045a2:	62 79 20 4d 53       	(bad)
   1400045a7:	59                   	pop    rcx
   1400045a8:	53                   	push   rbx
   1400045a9:	32 20                	xor    ah,BYTE PTR [rax]
   1400045ab:	70 72                	jo     14000461f <.rdata$zzz+0x2f>
   1400045ad:	6f                   	outs   dx,DWORD PTR [rsi]
   1400045ae:	6a 65                	push   0x65
   1400045b0:	63 74 29 20          	movsxd esi,DWORD PTR [rcx+rbp*1+0x20]
   1400045b4:	31 35 2e 32 2e 30    	xor    DWORD PTR [rip+0x302e322e],esi        # 1702e77e8 <.debug_rnglists+0x302c4732>
   1400045ba:	00 00                	add    BYTE PTR [rax],al
   1400045bc:	00 00                	add    BYTE PTR [rax],al
	...

00000001400045c0 <.rdata$zzz>:
   1400045c0:	47                   	rex.RXB
   1400045c1:	43                   	rex.XB
   1400045c2:	43 3a 20             	rex.XB cmp spl,BYTE PTR [r8]
   1400045c5:	28 52 65             	sub    BYTE PTR [rdx+0x65],dl
   1400045c8:	76 38                	jbe    140004602 <.rdata$zzz+0x12>
   1400045ca:	2c 20                	sub    al,0x20
   1400045cc:	42 75 69             	rex.X jne 140004638 <.rdata$zzz+0x18>
   1400045cf:	6c                   	ins    BYTE PTR [rdi],dx
   1400045d0:	74 20                	je     1400045f2 <.rdata$zzz+0x2>
   1400045d2:	62 79 20 4d 53       	(bad)
   1400045d7:	59                   	pop    rcx
   1400045d8:	53                   	push   rbx
   1400045d9:	32 20                	xor    ah,BYTE PTR [rax]
   1400045db:	70 72                	jo     14000464f <.rdata$zzz+0x2f>
   1400045dd:	6f                   	outs   dx,DWORD PTR [rsi]
   1400045de:	6a 65                	push   0x65
   1400045e0:	63 74 29 20          	movsxd esi,DWORD PTR [rcx+rbp*1+0x20]
   1400045e4:	31 35 2e 32 2e 30    	xor    DWORD PTR [rip+0x302e322e],esi        # 1702e7818 <.debug_rnglists+0x302c4762>
   1400045ea:	00 00                	add    BYTE PTR [rax],al
   1400045ec:	00 00                	add    BYTE PTR [rax],al
	...

00000001400045f0 <.rdata$zzz>:
   1400045f0:	47                   	rex.RXB
   1400045f1:	43                   	rex.XB
   1400045f2:	43 3a 20             	rex.XB cmp spl,BYTE PTR [r8]
   1400045f5:	28 52 65             	sub    BYTE PTR [rdx+0x65],dl
   1400045f8:	76 38                	jbe    140004632 <.rdata$zzz+0x12>
   1400045fa:	2c 20                	sub    al,0x20
   1400045fc:	42 75 69             	rex.X jne 140004668 <.rdata$zzz+0x18>
   1400045ff:	6c                   	ins    BYTE PTR [rdi],dx
   140004600:	74 20                	je     140004622 <.rdata$zzz+0x2>
   140004602:	62 79 20 4d 53       	(bad)
   140004607:	59                   	pop    rcx
   140004608:	53                   	push   rbx
   140004609:	32 20                	xor    ah,BYTE PTR [rax]
   14000460b:	70 72                	jo     14000467f <.rdata$zzz+0x2f>
   14000460d:	6f                   	outs   dx,DWORD PTR [rsi]
   14000460e:	6a 65                	push   0x65
   140004610:	63 74 29 20          	movsxd esi,DWORD PTR [rcx+rbp*1+0x20]
   140004614:	31 35 2e 32 2e 30    	xor    DWORD PTR [rip+0x302e322e],esi        # 1702e7848 <.debug_rnglists+0x302c4792>
   14000461a:	00 00                	add    BYTE PTR [rax],al
   14000461c:	00 00                	add    BYTE PTR [rax],al
	...

0000000140004620 <.rdata$zzz>:
   140004620:	47                   	rex.RXB
   140004621:	43                   	rex.XB
   140004622:	43 3a 20             	rex.XB cmp spl,BYTE PTR [r8]
   140004625:	28 52 65             	sub    BYTE PTR [rdx+0x65],dl
   140004628:	76 38                	jbe    140004662 <.rdata$zzz+0x12>
   14000462a:	2c 20                	sub    al,0x20
   14000462c:	42 75 69             	rex.X jne 140004698 <.rdata$zzz+0x18>
   14000462f:	6c                   	ins    BYTE PTR [rdi],dx
   140004630:	74 20                	je     140004652 <.rdata$zzz+0x2>
   140004632:	62 79 20 4d 53       	(bad)
   140004637:	59                   	pop    rcx
   140004638:	53                   	push   rbx
   140004639:	32 20                	xor    ah,BYTE PTR [rax]
   14000463b:	70 72                	jo     1400046af <.rdata$zzz+0x2f>
   14000463d:	6f                   	outs   dx,DWORD PTR [rsi]
   14000463e:	6a 65                	push   0x65
   140004640:	63 74 29 20          	movsxd esi,DWORD PTR [rcx+rbp*1+0x20]
   140004644:	31 35 2e 32 2e 30    	xor    DWORD PTR [rip+0x302e322e],esi        # 1702e7878 <.debug_rnglists+0x302c47c2>
   14000464a:	00 00                	add    BYTE PTR [rax],al
   14000464c:	00 00                	add    BYTE PTR [rax],al
	...

0000000140004650 <.rdata$zzz>:
   140004650:	47                   	rex.RXB
   140004651:	43                   	rex.XB
   140004652:	43 3a 20             	rex.XB cmp spl,BYTE PTR [r8]
   140004655:	28 52 65             	sub    BYTE PTR [rdx+0x65],dl
   140004658:	76 38                	jbe    140004692 <.rdata$zzz+0x12>
   14000465a:	2c 20                	sub    al,0x20
   14000465c:	42 75 69             	rex.X jne 1400046c8 <.rdata$zzz+0x18>
   14000465f:	6c                   	ins    BYTE PTR [rdi],dx
   140004660:	74 20                	je     140004682 <.rdata$zzz+0x2>
   140004662:	62 79 20 4d 53       	(bad)
   140004667:	59                   	pop    rcx
   140004668:	53                   	push   rbx
   140004669:	32 20                	xor    ah,BYTE PTR [rax]
   14000466b:	70 72                	jo     1400046df <.rdata$zzz+0x2f>
   14000466d:	6f                   	outs   dx,DWORD PTR [rsi]
   14000466e:	6a 65                	push   0x65
   140004670:	63 74 29 20          	movsxd esi,DWORD PTR [rcx+rbp*1+0x20]
   140004674:	31 35 2e 32 2e 30    	xor    DWORD PTR [rip+0x302e322e],esi        # 1702e78a8 <.debug_rnglists+0x302c47f2>
   14000467a:	00 00                	add    BYTE PTR [rax],al
   14000467c:	00 00                	add    BYTE PTR [rax],al
	...

0000000140004680 <.rdata$zzz>:
   140004680:	47                   	rex.RXB
   140004681:	43                   	rex.XB
   140004682:	43 3a 20             	rex.XB cmp spl,BYTE PTR [r8]
   140004685:	28 52 65             	sub    BYTE PTR [rdx+0x65],dl
   140004688:	76 38                	jbe    1400046c2 <.rdata$zzz+0x12>
   14000468a:	2c 20                	sub    al,0x20
   14000468c:	42 75 69             	rex.X jne 1400046f8 <.rdata$zzz+0x18>
   14000468f:	6c                   	ins    BYTE PTR [rdi],dx
   140004690:	74 20                	je     1400046b2 <.rdata$zzz+0x2>
   140004692:	62 79 20 4d 53       	(bad)
   140004697:	59                   	pop    rcx
   140004698:	53                   	push   rbx
   140004699:	32 20                	xor    ah,BYTE PTR [rax]
   14000469b:	70 72                	jo     14000470f <.rdata$zzz+0x2f>
   14000469d:	6f                   	outs   dx,DWORD PTR [rsi]
   14000469e:	6a 65                	push   0x65
   1400046a0:	63 74 29 20          	movsxd esi,DWORD PTR [rcx+rbp*1+0x20]
   1400046a4:	31 35 2e 32 2e 30    	xor    DWORD PTR [rip+0x302e322e],esi        # 1702e78d8 <.debug_rnglists+0x302c4822>
   1400046aa:	00 00                	add    BYTE PTR [rax],al
   1400046ac:	00 00                	add    BYTE PTR [rax],al
	...

00000001400046b0 <.rdata$zzz>:
   1400046b0:	47                   	rex.RXB
   1400046b1:	43                   	rex.XB
   1400046b2:	43 3a 20             	rex.XB cmp spl,BYTE PTR [r8]
   1400046b5:	28 52 65             	sub    BYTE PTR [rdx+0x65],dl
   1400046b8:	76 38                	jbe    1400046f2 <.rdata$zzz+0x12>
   1400046ba:	2c 20                	sub    al,0x20
   1400046bc:	42 75 69             	rex.X jne 140004728 <.rdata$zzz+0x18>
   1400046bf:	6c                   	ins    BYTE PTR [rdi],dx
   1400046c0:	74 20                	je     1400046e2 <.rdata$zzz+0x2>
   1400046c2:	62 79 20 4d 53       	(bad)
   1400046c7:	59                   	pop    rcx
   1400046c8:	53                   	push   rbx
   1400046c9:	32 20                	xor    ah,BYTE PTR [rax]
   1400046cb:	70 72                	jo     14000473f <.rdata$zzz+0x2f>
   1400046cd:	6f                   	outs   dx,DWORD PTR [rsi]
   1400046ce:	6a 65                	push   0x65
   1400046d0:	63 74 29 20          	movsxd esi,DWORD PTR [rcx+rbp*1+0x20]
   1400046d4:	31 35 2e 32 2e 30    	xor    DWORD PTR [rip+0x302e322e],esi        # 1702e7908 <.debug_rnglists+0x302c4852>
   1400046da:	00 00                	add    BYTE PTR [rax],al
   1400046dc:	00 00                	add    BYTE PTR [rax],al
	...

00000001400046e0 <.rdata$zzz>:
   1400046e0:	47                   	rex.RXB
   1400046e1:	43                   	rex.XB
   1400046e2:	43 3a 20             	rex.XB cmp spl,BYTE PTR [r8]
   1400046e5:	28 52 65             	sub    BYTE PTR [rdx+0x65],dl
   1400046e8:	76 38                	jbe    140004722 <.rdata$zzz+0x12>
   1400046ea:	2c 20                	sub    al,0x20
   1400046ec:	42 75 69             	rex.X jne 140004758 <.rdata$zzz+0x18>
   1400046ef:	6c                   	ins    BYTE PTR [rdi],dx
   1400046f0:	74 20                	je     140004712 <.rdata$zzz+0x2>
   1400046f2:	62 79 20 4d 53       	(bad)
   1400046f7:	59                   	pop    rcx
   1400046f8:	53                   	push   rbx
   1400046f9:	32 20                	xor    ah,BYTE PTR [rax]
   1400046fb:	70 72                	jo     14000476f <.rdata$zzz+0x2f>
   1400046fd:	6f                   	outs   dx,DWORD PTR [rsi]
   1400046fe:	6a 65                	push   0x65
   140004700:	63 74 29 20          	movsxd esi,DWORD PTR [rcx+rbp*1+0x20]
   140004704:	31 35 2e 32 2e 30    	xor    DWORD PTR [rip+0x302e322e],esi        # 1702e7938 <.debug_rnglists+0x302c4882>
   14000470a:	00 00                	add    BYTE PTR [rax],al
   14000470c:	00 00                	add    BYTE PTR [rax],al
	...

0000000140004710 <.rdata$zzz>:
   140004710:	47                   	rex.RXB
   140004711:	43                   	rex.XB
   140004712:	43 3a 20             	rex.XB cmp spl,BYTE PTR [r8]
   140004715:	28 52 65             	sub    BYTE PTR [rdx+0x65],dl
   140004718:	76 38                	jbe    140004752 <.rdata$zzz+0x12>
   14000471a:	2c 20                	sub    al,0x20
   14000471c:	42 75 69             	rex.X jne 140004788 <.rdata$zzz+0x18>
   14000471f:	6c                   	ins    BYTE PTR [rdi],dx
   140004720:	74 20                	je     140004742 <.rdata$zzz+0x2>
   140004722:	62 79 20 4d 53       	(bad)
   140004727:	59                   	pop    rcx
   140004728:	53                   	push   rbx
   140004729:	32 20                	xor    ah,BYTE PTR [rax]
   14000472b:	70 72                	jo     14000479f <.rdata$zzz+0x2f>
   14000472d:	6f                   	outs   dx,DWORD PTR [rsi]
   14000472e:	6a 65                	push   0x65
   140004730:	63 74 29 20          	movsxd esi,DWORD PTR [rcx+rbp*1+0x20]
   140004734:	31 35 2e 32 2e 30    	xor    DWORD PTR [rip+0x302e322e],esi        # 1702e7968 <.debug_rnglists+0x302c48b2>
   14000473a:	00 00                	add    BYTE PTR [rax],al
   14000473c:	00 00                	add    BYTE PTR [rax],al
	...

0000000140004740 <.rdata$zzz>:
   140004740:	47                   	rex.RXB
   140004741:	43                   	rex.XB
   140004742:	43 3a 20             	rex.XB cmp spl,BYTE PTR [r8]
   140004745:	28 52 65             	sub    BYTE PTR [rdx+0x65],dl
   140004748:	76 38                	jbe    140004782 <.rdata$zzz+0x12>
   14000474a:	2c 20                	sub    al,0x20
   14000474c:	42 75 69             	rex.X jne 1400047b8 <.rdata$zzz+0x18>
   14000474f:	6c                   	ins    BYTE PTR [rdi],dx
   140004750:	74 20                	je     140004772 <.rdata$zzz+0x2>
   140004752:	62 79 20 4d 53       	(bad)
   140004757:	59                   	pop    rcx
   140004758:	53                   	push   rbx
   140004759:	32 20                	xor    ah,BYTE PTR [rax]
   14000475b:	70 72                	jo     1400047cf <.rdata$zzz+0x2f>
   14000475d:	6f                   	outs   dx,DWORD PTR [rsi]
   14000475e:	6a 65                	push   0x65
   140004760:	63 74 29 20          	movsxd esi,DWORD PTR [rcx+rbp*1+0x20]
   140004764:	31 35 2e 32 2e 30    	xor    DWORD PTR [rip+0x302e322e],esi        # 1702e7998 <.debug_rnglists+0x302c48e2>
   14000476a:	00 00                	add    BYTE PTR [rax],al
   14000476c:	00 00                	add    BYTE PTR [rax],al
	...

0000000140004770 <.rdata$zzz>:
   140004770:	47                   	rex.RXB
   140004771:	43                   	rex.XB
   140004772:	43 3a 20             	rex.XB cmp spl,BYTE PTR [r8]
   140004775:	28 52 65             	sub    BYTE PTR [rdx+0x65],dl
   140004778:	76 38                	jbe    1400047b2 <.rdata$zzz+0x12>
   14000477a:	2c 20                	sub    al,0x20
   14000477c:	42 75 69             	rex.X jne 1400047e8 <.rdata$zzz+0x18>
   14000477f:	6c                   	ins    BYTE PTR [rdi],dx
   140004780:	74 20                	je     1400047a2 <.rdata$zzz+0x2>
   140004782:	62 79 20 4d 53       	(bad)
   140004787:	59                   	pop    rcx
   140004788:	53                   	push   rbx
   140004789:	32 20                	xor    ah,BYTE PTR [rax]
   14000478b:	70 72                	jo     1400047ff <.rdata$zzz+0x2f>
   14000478d:	6f                   	outs   dx,DWORD PTR [rsi]
   14000478e:	6a 65                	push   0x65
   140004790:	63 74 29 20          	movsxd esi,DWORD PTR [rcx+rbp*1+0x20]
   140004794:	31 35 2e 32 2e 30    	xor    DWORD PTR [rip+0x302e322e],esi        # 1702e79c8 <.debug_rnglists+0x302c4912>
   14000479a:	00 00                	add    BYTE PTR [rax],al
   14000479c:	00 00                	add    BYTE PTR [rax],al
	...

00000001400047a0 <.rdata$zzz>:
   1400047a0:	47                   	rex.RXB
   1400047a1:	43                   	rex.XB
   1400047a2:	43 3a 20             	rex.XB cmp spl,BYTE PTR [r8]
   1400047a5:	28 52 65             	sub    BYTE PTR [rdx+0x65],dl
   1400047a8:	76 38                	jbe    1400047e2 <.rdata$zzz+0x12>
   1400047aa:	2c 20                	sub    al,0x20
   1400047ac:	42 75 69             	rex.X jne 140004818 <.rdata$zzz+0x18>
   1400047af:	6c                   	ins    BYTE PTR [rdi],dx
   1400047b0:	74 20                	je     1400047d2 <.rdata$zzz+0x2>
   1400047b2:	62 79 20 4d 53       	(bad)
   1400047b7:	59                   	pop    rcx
   1400047b8:	53                   	push   rbx
   1400047b9:	32 20                	xor    ah,BYTE PTR [rax]
   1400047bb:	70 72                	jo     14000482f <.rdata$zzz+0x2f>
   1400047bd:	6f                   	outs   dx,DWORD PTR [rsi]
   1400047be:	6a 65                	push   0x65
   1400047c0:	63 74 29 20          	movsxd esi,DWORD PTR [rcx+rbp*1+0x20]
   1400047c4:	31 35 2e 32 2e 30    	xor    DWORD PTR [rip+0x302e322e],esi        # 1702e79f8 <.debug_rnglists+0x302c4942>
   1400047ca:	00 00                	add    BYTE PTR [rax],al
   1400047cc:	00 00                	add    BYTE PTR [rax],al
	...

00000001400047d0 <.rdata$zzz>:
   1400047d0:	47                   	rex.RXB
   1400047d1:	43                   	rex.XB
   1400047d2:	43 3a 20             	rex.XB cmp spl,BYTE PTR [r8]
   1400047d5:	28 52 65             	sub    BYTE PTR [rdx+0x65],dl
   1400047d8:	76 38                	jbe    140004812 <.rdata$zzz+0x12>
   1400047da:	2c 20                	sub    al,0x20
   1400047dc:	42 75 69             	rex.X jne 140004848 <.rdata$zzz+0x18>
   1400047df:	6c                   	ins    BYTE PTR [rdi],dx
   1400047e0:	74 20                	je     140004802 <.rdata$zzz+0x2>
   1400047e2:	62 79 20 4d 53       	(bad)
   1400047e7:	59                   	pop    rcx
   1400047e8:	53                   	push   rbx
   1400047e9:	32 20                	xor    ah,BYTE PTR [rax]
   1400047eb:	70 72                	jo     14000485f <.rdata$zzz+0x2f>
   1400047ed:	6f                   	outs   dx,DWORD PTR [rsi]
   1400047ee:	6a 65                	push   0x65
   1400047f0:	63 74 29 20          	movsxd esi,DWORD PTR [rcx+rbp*1+0x20]
   1400047f4:	31 35 2e 32 2e 30    	xor    DWORD PTR [rip+0x302e322e],esi        # 1702e7a28 <.debug_rnglists+0x302c4972>
   1400047fa:	00 00                	add    BYTE PTR [rax],al
   1400047fc:	00 00                	add    BYTE PTR [rax],al
	...

0000000140004800 <.rdata$zzz>:
   140004800:	47                   	rex.RXB
   140004801:	43                   	rex.XB
   140004802:	43 3a 20             	rex.XB cmp spl,BYTE PTR [r8]
   140004805:	28 52 65             	sub    BYTE PTR [rdx+0x65],dl
   140004808:	76 38                	jbe    140004842 <.rdata$zzz+0x12>
   14000480a:	2c 20                	sub    al,0x20
   14000480c:	42 75 69             	rex.X jne 140004878 <.rdata$zzz+0x18>
   14000480f:	6c                   	ins    BYTE PTR [rdi],dx
   140004810:	74 20                	je     140004832 <.rdata$zzz+0x2>
   140004812:	62 79 20 4d 53       	(bad)
   140004817:	59                   	pop    rcx
   140004818:	53                   	push   rbx
   140004819:	32 20                	xor    ah,BYTE PTR [rax]
   14000481b:	70 72                	jo     14000488f <.rdata$zzz+0x2f>
   14000481d:	6f                   	outs   dx,DWORD PTR [rsi]
   14000481e:	6a 65                	push   0x65
   140004820:	63 74 29 20          	movsxd esi,DWORD PTR [rcx+rbp*1+0x20]
   140004824:	31 35 2e 32 2e 30    	xor    DWORD PTR [rip+0x302e322e],esi        # 1702e7a58 <.debug_rnglists+0x302c49a2>
   14000482a:	00 00                	add    BYTE PTR [rax],al
   14000482c:	00 00                	add    BYTE PTR [rax],al
	...

0000000140004830 <.rdata$zzz>:
   140004830:	47                   	rex.RXB
   140004831:	43                   	rex.XB
   140004832:	43 3a 20             	rex.XB cmp spl,BYTE PTR [r8]
   140004835:	28 52 65             	sub    BYTE PTR [rdx+0x65],dl
   140004838:	76 38                	jbe    140004872 <.rdata$zzz+0x12>
   14000483a:	2c 20                	sub    al,0x20
   14000483c:	42 75 69             	rex.X jne 1400048a8 <.rdata$zzz+0x18>
   14000483f:	6c                   	ins    BYTE PTR [rdi],dx
   140004840:	74 20                	je     140004862 <.rdata$zzz+0x2>
   140004842:	62 79 20 4d 53       	(bad)
   140004847:	59                   	pop    rcx
   140004848:	53                   	push   rbx
   140004849:	32 20                	xor    ah,BYTE PTR [rax]
   14000484b:	70 72                	jo     1400048bf <.rdata$zzz+0x2f>
   14000484d:	6f                   	outs   dx,DWORD PTR [rsi]
   14000484e:	6a 65                	push   0x65
   140004850:	63 74 29 20          	movsxd esi,DWORD PTR [rcx+rbp*1+0x20]
   140004854:	31 35 2e 32 2e 30    	xor    DWORD PTR [rip+0x302e322e],esi        # 1702e7a88 <.debug_rnglists+0x302c49d2>
   14000485a:	00 00                	add    BYTE PTR [rax],al
   14000485c:	00 00                	add    BYTE PTR [rax],al
	...

0000000140004860 <.rdata$zzz>:
   140004860:	47                   	rex.RXB
   140004861:	43                   	rex.XB
   140004862:	43 3a 20             	rex.XB cmp spl,BYTE PTR [r8]
   140004865:	28 52 65             	sub    BYTE PTR [rdx+0x65],dl
   140004868:	76 38                	jbe    1400048a2 <.rdata$zzz+0x12>
   14000486a:	2c 20                	sub    al,0x20
   14000486c:	42 75 69             	rex.X jne 1400048d8 <.rdata$zzz+0x18>
   14000486f:	6c                   	ins    BYTE PTR [rdi],dx
   140004870:	74 20                	je     140004892 <.rdata$zzz+0x2>
   140004872:	62 79 20 4d 53       	(bad)
   140004877:	59                   	pop    rcx
   140004878:	53                   	push   rbx
   140004879:	32 20                	xor    ah,BYTE PTR [rax]
   14000487b:	70 72                	jo     1400048ef <.rdata$zzz+0x2f>
   14000487d:	6f                   	outs   dx,DWORD PTR [rsi]
   14000487e:	6a 65                	push   0x65
   140004880:	63 74 29 20          	movsxd esi,DWORD PTR [rcx+rbp*1+0x20]
   140004884:	31 35 2e 32 2e 30    	xor    DWORD PTR [rip+0x302e322e],esi        # 1702e7ab8 <.debug_rnglists+0x302c4a02>
   14000488a:	00 00                	add    BYTE PTR [rax],al
   14000488c:	00 00                	add    BYTE PTR [rax],al
	...

0000000140004890 <.rdata$zzz>:
   140004890:	47                   	rex.RXB
   140004891:	43                   	rex.XB
   140004892:	43 3a 20             	rex.XB cmp spl,BYTE PTR [r8]
   140004895:	28 52 65             	sub    BYTE PTR [rdx+0x65],dl
   140004898:	76 38                	jbe    1400048d2 <.rdata$zzz+0x12>
   14000489a:	2c 20                	sub    al,0x20
   14000489c:	42 75 69             	rex.X jne 140004908 <.rdata$zzz+0x18>
   14000489f:	6c                   	ins    BYTE PTR [rdi],dx
   1400048a0:	74 20                	je     1400048c2 <.rdata$zzz+0x2>
   1400048a2:	62 79 20 4d 53       	(bad)
   1400048a7:	59                   	pop    rcx
   1400048a8:	53                   	push   rbx
   1400048a9:	32 20                	xor    ah,BYTE PTR [rax]
   1400048ab:	70 72                	jo     14000491f <.rdata$zzz+0x2f>
   1400048ad:	6f                   	outs   dx,DWORD PTR [rsi]
   1400048ae:	6a 65                	push   0x65
   1400048b0:	63 74 29 20          	movsxd esi,DWORD PTR [rcx+rbp*1+0x20]
   1400048b4:	31 35 2e 32 2e 30    	xor    DWORD PTR [rip+0x302e322e],esi        # 1702e7ae8 <.debug_rnglists+0x302c4a32>
   1400048ba:	00 00                	add    BYTE PTR [rax],al
   1400048bc:	00 00                	add    BYTE PTR [rax],al
	...

00000001400048c0 <.rdata$zzz>:
   1400048c0:	47                   	rex.RXB
   1400048c1:	43                   	rex.XB
   1400048c2:	43 3a 20             	rex.XB cmp spl,BYTE PTR [r8]
   1400048c5:	28 52 65             	sub    BYTE PTR [rdx+0x65],dl
   1400048c8:	76 38                	jbe    140004902 <.rdata$zzz+0x12>
   1400048ca:	2c 20                	sub    al,0x20
   1400048cc:	42 75 69             	rex.X jne 140004938 <.rdata$zzz+0x18>
   1400048cf:	6c                   	ins    BYTE PTR [rdi],dx
   1400048d0:	74 20                	je     1400048f2 <.rdata$zzz+0x2>
   1400048d2:	62 79 20 4d 53       	(bad)
   1400048d7:	59                   	pop    rcx
   1400048d8:	53                   	push   rbx
   1400048d9:	32 20                	xor    ah,BYTE PTR [rax]
   1400048db:	70 72                	jo     14000494f <.rdata$zzz+0x2f>
   1400048dd:	6f                   	outs   dx,DWORD PTR [rsi]
   1400048de:	6a 65                	push   0x65
   1400048e0:	63 74 29 20          	movsxd esi,DWORD PTR [rcx+rbp*1+0x20]
   1400048e4:	31 35 2e 32 2e 30    	xor    DWORD PTR [rip+0x302e322e],esi        # 1702e7b18 <.debug_rnglists+0x302c4a62>
   1400048ea:	00 00                	add    BYTE PTR [rax],al
   1400048ec:	00 00                	add    BYTE PTR [rax],al
	...

00000001400048f0 <.rdata$zzz>:
   1400048f0:	47                   	rex.RXB
   1400048f1:	43                   	rex.XB
   1400048f2:	43 3a 20             	rex.XB cmp spl,BYTE PTR [r8]
   1400048f5:	28 52 65             	sub    BYTE PTR [rdx+0x65],dl
   1400048f8:	76 38                	jbe    140004932 <.rdata$zzz+0x12>
   1400048fa:	2c 20                	sub    al,0x20
   1400048fc:	42 75 69             	rex.X jne 140004968 <.rdata$zzz+0x18>
   1400048ff:	6c                   	ins    BYTE PTR [rdi],dx
   140004900:	74 20                	je     140004922 <.rdata$zzz+0x2>
   140004902:	62 79 20 4d 53       	(bad)
   140004907:	59                   	pop    rcx
   140004908:	53                   	push   rbx
   140004909:	32 20                	xor    ah,BYTE PTR [rax]
   14000490b:	70 72                	jo     14000497f <.rdata$zzz+0x2f>
   14000490d:	6f                   	outs   dx,DWORD PTR [rsi]
   14000490e:	6a 65                	push   0x65
   140004910:	63 74 29 20          	movsxd esi,DWORD PTR [rcx+rbp*1+0x20]
   140004914:	31 35 2e 32 2e 30    	xor    DWORD PTR [rip+0x302e322e],esi        # 1702e7b48 <.debug_rnglists+0x302c4a92>
   14000491a:	00 00                	add    BYTE PTR [rax],al
   14000491c:	00 00                	add    BYTE PTR [rax],al
	...

0000000140004920 <.rdata$zzz>:
   140004920:	47                   	rex.RXB
   140004921:	43                   	rex.XB
   140004922:	43 3a 20             	rex.XB cmp spl,BYTE PTR [r8]
   140004925:	28 52 65             	sub    BYTE PTR [rdx+0x65],dl
   140004928:	76 38                	jbe    140004962 <.rdata$zzz+0x12>
   14000492a:	2c 20                	sub    al,0x20
   14000492c:	42 75 69             	rex.X jne 140004998 <.rdata$zzz+0x18>
   14000492f:	6c                   	ins    BYTE PTR [rdi],dx
   140004930:	74 20                	je     140004952 <.rdata$zzz+0x2>
   140004932:	62 79 20 4d 53       	(bad)
   140004937:	59                   	pop    rcx
   140004938:	53                   	push   rbx
   140004939:	32 20                	xor    ah,BYTE PTR [rax]
   14000493b:	70 72                	jo     1400049af <.rdata$zzz+0x2f>
   14000493d:	6f                   	outs   dx,DWORD PTR [rsi]
   14000493e:	6a 65                	push   0x65
   140004940:	63 74 29 20          	movsxd esi,DWORD PTR [rcx+rbp*1+0x20]
   140004944:	31 35 2e 32 2e 30    	xor    DWORD PTR [rip+0x302e322e],esi        # 1702e7b78 <.debug_rnglists+0x302c4ac2>
   14000494a:	00 00                	add    BYTE PTR [rax],al
   14000494c:	00 00                	add    BYTE PTR [rax],al
	...

0000000140004950 <.rdata$zzz>:
   140004950:	47                   	rex.RXB
   140004951:	43                   	rex.XB
   140004952:	43 3a 20             	rex.XB cmp spl,BYTE PTR [r8]
   140004955:	28 52 65             	sub    BYTE PTR [rdx+0x65],dl
   140004958:	76 38                	jbe    140004992 <.rdata$zzz+0x12>
   14000495a:	2c 20                	sub    al,0x20
   14000495c:	42 75 69             	rex.X jne 1400049c8 <.rdata$zzz+0x18>
   14000495f:	6c                   	ins    BYTE PTR [rdi],dx
   140004960:	74 20                	je     140004982 <.rdata$zzz+0x2>
   140004962:	62 79 20 4d 53       	(bad)
   140004967:	59                   	pop    rcx
   140004968:	53                   	push   rbx
   140004969:	32 20                	xor    ah,BYTE PTR [rax]
   14000496b:	70 72                	jo     1400049df <.rdata$zzz+0x2f>
   14000496d:	6f                   	outs   dx,DWORD PTR [rsi]
   14000496e:	6a 65                	push   0x65
   140004970:	63 74 29 20          	movsxd esi,DWORD PTR [rcx+rbp*1+0x20]
   140004974:	31 35 2e 32 2e 30    	xor    DWORD PTR [rip+0x302e322e],esi        # 1702e7ba8 <.debug_rnglists+0x302c4af2>
   14000497a:	00 00                	add    BYTE PTR [rax],al
   14000497c:	00 00                	add    BYTE PTR [rax],al
	...

0000000140004980 <.rdata$zzz>:
   140004980:	47                   	rex.RXB
   140004981:	43                   	rex.XB
   140004982:	43 3a 20             	rex.XB cmp spl,BYTE PTR [r8]
   140004985:	28 52 65             	sub    BYTE PTR [rdx+0x65],dl
   140004988:	76 38                	jbe    1400049c2 <.rdata$zzz+0x12>
   14000498a:	2c 20                	sub    al,0x20
   14000498c:	42 75 69             	rex.X jne 1400049f8 <.rdata$zzz+0x18>
   14000498f:	6c                   	ins    BYTE PTR [rdi],dx
   140004990:	74 20                	je     1400049b2 <.rdata$zzz+0x2>
   140004992:	62 79 20 4d 53       	(bad)
   140004997:	59                   	pop    rcx
   140004998:	53                   	push   rbx
   140004999:	32 20                	xor    ah,BYTE PTR [rax]
   14000499b:	70 72                	jo     140004a0f <.rdata$zzz+0x2f>
   14000499d:	6f                   	outs   dx,DWORD PTR [rsi]
   14000499e:	6a 65                	push   0x65
   1400049a0:	63 74 29 20          	movsxd esi,DWORD PTR [rcx+rbp*1+0x20]
   1400049a4:	31 35 2e 32 2e 30    	xor    DWORD PTR [rip+0x302e322e],esi        # 1702e7bd8 <.debug_rnglists+0x302c4b22>
   1400049aa:	00 00                	add    BYTE PTR [rax],al
   1400049ac:	00 00                	add    BYTE PTR [rax],al
	...

00000001400049b0 <.rdata$zzz>:
   1400049b0:	47                   	rex.RXB
   1400049b1:	43                   	rex.XB
   1400049b2:	43 3a 20             	rex.XB cmp spl,BYTE PTR [r8]
   1400049b5:	28 52 65             	sub    BYTE PTR [rdx+0x65],dl
   1400049b8:	76 38                	jbe    1400049f2 <.rdata$zzz+0x12>
   1400049ba:	2c 20                	sub    al,0x20
   1400049bc:	42 75 69             	rex.X jne 140004a28 <.rdata$zzz+0x18>
   1400049bf:	6c                   	ins    BYTE PTR [rdi],dx
   1400049c0:	74 20                	je     1400049e2 <.rdata$zzz+0x2>
   1400049c2:	62 79 20 4d 53       	(bad)
   1400049c7:	59                   	pop    rcx
   1400049c8:	53                   	push   rbx
   1400049c9:	32 20                	xor    ah,BYTE PTR [rax]
   1400049cb:	70 72                	jo     140004a3f <.rdata$zzz+0x2f>
   1400049cd:	6f                   	outs   dx,DWORD PTR [rsi]
   1400049ce:	6a 65                	push   0x65
   1400049d0:	63 74 29 20          	movsxd esi,DWORD PTR [rcx+rbp*1+0x20]
   1400049d4:	31 35 2e 32 2e 30    	xor    DWORD PTR [rip+0x302e322e],esi        # 1702e7c08 <.debug_rnglists+0x302c4b52>
   1400049da:	00 00                	add    BYTE PTR [rax],al
   1400049dc:	00 00                	add    BYTE PTR [rax],al
	...

00000001400049e0 <.rdata$zzz>:
   1400049e0:	47                   	rex.RXB
   1400049e1:	43                   	rex.XB
   1400049e2:	43 3a 20             	rex.XB cmp spl,BYTE PTR [r8]
   1400049e5:	28 52 65             	sub    BYTE PTR [rdx+0x65],dl
   1400049e8:	76 38                	jbe    140004a22 <.rdata$zzz+0x12>
   1400049ea:	2c 20                	sub    al,0x20
   1400049ec:	42 75 69             	rex.X jne 140004a58 <.rdata$zzz+0x18>
   1400049ef:	6c                   	ins    BYTE PTR [rdi],dx
   1400049f0:	74 20                	je     140004a12 <.rdata$zzz+0x2>
   1400049f2:	62 79 20 4d 53       	(bad)
   1400049f7:	59                   	pop    rcx
   1400049f8:	53                   	push   rbx
   1400049f9:	32 20                	xor    ah,BYTE PTR [rax]
   1400049fb:	70 72                	jo     140004a6f <.rdata$zzz+0x2f>
   1400049fd:	6f                   	outs   dx,DWORD PTR [rsi]
   1400049fe:	6a 65                	push   0x65
   140004a00:	63 74 29 20          	movsxd esi,DWORD PTR [rcx+rbp*1+0x20]
   140004a04:	31 35 2e 32 2e 30    	xor    DWORD PTR [rip+0x302e322e],esi        # 1702e7c38 <.debug_rnglists+0x302c4b82>
   140004a0a:	00 00                	add    BYTE PTR [rax],al
   140004a0c:	00 00                	add    BYTE PTR [rax],al
	...

0000000140004a10 <.rdata$zzz>:
   140004a10:	47                   	rex.RXB
   140004a11:	43                   	rex.XB
   140004a12:	43 3a 20             	rex.XB cmp spl,BYTE PTR [r8]
   140004a15:	28 52 65             	sub    BYTE PTR [rdx+0x65],dl
   140004a18:	76 38                	jbe    140004a52 <.rdata$zzz+0x12>
   140004a1a:	2c 20                	sub    al,0x20
   140004a1c:	42 75 69             	rex.X jne 140004a88 <.rdata$zzz+0x18>
   140004a1f:	6c                   	ins    BYTE PTR [rdi],dx
   140004a20:	74 20                	je     140004a42 <.rdata$zzz+0x2>
   140004a22:	62 79 20 4d 53       	(bad)
   140004a27:	59                   	pop    rcx
   140004a28:	53                   	push   rbx
   140004a29:	32 20                	xor    ah,BYTE PTR [rax]
   140004a2b:	70 72                	jo     140004a9f <.rdata$zzz+0x2f>
   140004a2d:	6f                   	outs   dx,DWORD PTR [rsi]
   140004a2e:	6a 65                	push   0x65
   140004a30:	63 74 29 20          	movsxd esi,DWORD PTR [rcx+rbp*1+0x20]
   140004a34:	31 35 2e 32 2e 30    	xor    DWORD PTR [rip+0x302e322e],esi        # 1702e7c68 <.debug_rnglists+0x302c4bb2>
   140004a3a:	00 00                	add    BYTE PTR [rax],al
   140004a3c:	00 00                	add    BYTE PTR [rax],al
	...

0000000140004a40 <.rdata$zzz>:
   140004a40:	47                   	rex.RXB
   140004a41:	43                   	rex.XB
   140004a42:	43 3a 20             	rex.XB cmp spl,BYTE PTR [r8]
   140004a45:	28 52 65             	sub    BYTE PTR [rdx+0x65],dl
   140004a48:	76 38                	jbe    140004a82 <.rdata$zzz+0x12>
   140004a4a:	2c 20                	sub    al,0x20
   140004a4c:	42 75 69             	rex.X jne 140004ab8 <.rdata$zzz+0x18>
   140004a4f:	6c                   	ins    BYTE PTR [rdi],dx
   140004a50:	74 20                	je     140004a72 <.rdata$zzz+0x2>
   140004a52:	62 79 20 4d 53       	(bad)
   140004a57:	59                   	pop    rcx
   140004a58:	53                   	push   rbx
   140004a59:	32 20                	xor    ah,BYTE PTR [rax]
   140004a5b:	70 72                	jo     140004acf <.rdata$zzz+0x2f>
   140004a5d:	6f                   	outs   dx,DWORD PTR [rsi]
   140004a5e:	6a 65                	push   0x65
   140004a60:	63 74 29 20          	movsxd esi,DWORD PTR [rcx+rbp*1+0x20]
   140004a64:	31 35 2e 32 2e 30    	xor    DWORD PTR [rip+0x302e322e],esi        # 1702e7c98 <.debug_rnglists+0x302c4be2>
   140004a6a:	00 00                	add    BYTE PTR [rax],al
   140004a6c:	00 00                	add    BYTE PTR [rax],al
	...

0000000140004a70 <.rdata$zzz>:
   140004a70:	47                   	rex.RXB
   140004a71:	43                   	rex.XB
   140004a72:	43 3a 20             	rex.XB cmp spl,BYTE PTR [r8]
   140004a75:	28 52 65             	sub    BYTE PTR [rdx+0x65],dl
   140004a78:	76 38                	jbe    140004ab2 <.rdata$zzz+0x12>
   140004a7a:	2c 20                	sub    al,0x20
   140004a7c:	42 75 69             	rex.X jne 140004ae8 <.rdata$zzz+0x18>
   140004a7f:	6c                   	ins    BYTE PTR [rdi],dx
   140004a80:	74 20                	je     140004aa2 <.rdata$zzz+0x2>
   140004a82:	62 79 20 4d 53       	(bad)
   140004a87:	59                   	pop    rcx
   140004a88:	53                   	push   rbx
   140004a89:	32 20                	xor    ah,BYTE PTR [rax]
   140004a8b:	70 72                	jo     140004aff <.rdata$zzz+0x2f>
   140004a8d:	6f                   	outs   dx,DWORD PTR [rsi]
   140004a8e:	6a 65                	push   0x65
   140004a90:	63 74 29 20          	movsxd esi,DWORD PTR [rcx+rbp*1+0x20]
   140004a94:	31 35 2e 32 2e 30    	xor    DWORD PTR [rip+0x302e322e],esi        # 1702e7cc8 <.debug_rnglists+0x302c4c12>
   140004a9a:	00 00                	add    BYTE PTR [rax],al
   140004a9c:	00 00                	add    BYTE PTR [rax],al
	...

0000000140004aa0 <.rdata$zzz>:
   140004aa0:	47                   	rex.RXB
   140004aa1:	43                   	rex.XB
   140004aa2:	43 3a 20             	rex.XB cmp spl,BYTE PTR [r8]
   140004aa5:	28 52 65             	sub    BYTE PTR [rdx+0x65],dl
   140004aa8:	76 38                	jbe    140004ae2 <.rdata$zzz+0x12>
   140004aaa:	2c 20                	sub    al,0x20
   140004aac:	42 75 69             	rex.X jne 140004b18 <.rdata$zzz+0x18>
   140004aaf:	6c                   	ins    BYTE PTR [rdi],dx
   140004ab0:	74 20                	je     140004ad2 <.rdata$zzz+0x2>
   140004ab2:	62 79 20 4d 53       	(bad)
   140004ab7:	59                   	pop    rcx
   140004ab8:	53                   	push   rbx
   140004ab9:	32 20                	xor    ah,BYTE PTR [rax]
   140004abb:	70 72                	jo     140004b2f <.rdata$zzz+0x2f>
   140004abd:	6f                   	outs   dx,DWORD PTR [rsi]
   140004abe:	6a 65                	push   0x65
   140004ac0:	63 74 29 20          	movsxd esi,DWORD PTR [rcx+rbp*1+0x20]
   140004ac4:	31 35 2e 32 2e 30    	xor    DWORD PTR [rip+0x302e322e],esi        # 1702e7cf8 <.debug_rnglists+0x302c4c42>
   140004aca:	00 00                	add    BYTE PTR [rax],al
   140004acc:	00 00                	add    BYTE PTR [rax],al
	...

0000000140004ad0 <.rdata$zzz>:
   140004ad0:	47                   	rex.RXB
   140004ad1:	43                   	rex.XB
   140004ad2:	43 3a 20             	rex.XB cmp spl,BYTE PTR [r8]
   140004ad5:	28 52 65             	sub    BYTE PTR [rdx+0x65],dl
   140004ad8:	76 38                	jbe    140004b12 <.rdata$zzz+0x12>
   140004ada:	2c 20                	sub    al,0x20
   140004adc:	42 75 69             	rex.X jne 140004b48 <.rdata$zzz+0x18>
   140004adf:	6c                   	ins    BYTE PTR [rdi],dx
   140004ae0:	74 20                	je     140004b02 <.rdata$zzz+0x2>
   140004ae2:	62 79 20 4d 53       	(bad)
   140004ae7:	59                   	pop    rcx
   140004ae8:	53                   	push   rbx
   140004ae9:	32 20                	xor    ah,BYTE PTR [rax]
   140004aeb:	70 72                	jo     140004b5f <.rdata$zzz+0x2f>
   140004aed:	6f                   	outs   dx,DWORD PTR [rsi]
   140004aee:	6a 65                	push   0x65
   140004af0:	63 74 29 20          	movsxd esi,DWORD PTR [rcx+rbp*1+0x20]
   140004af4:	31 35 2e 32 2e 30    	xor    DWORD PTR [rip+0x302e322e],esi        # 1702e7d28 <.debug_rnglists+0x302c4c72>
   140004afa:	00 00                	add    BYTE PTR [rax],al
   140004afc:	00 00                	add    BYTE PTR [rax],al
	...

0000000140004b00 <.rdata$zzz>:
   140004b00:	47                   	rex.RXB
   140004b01:	43                   	rex.XB
   140004b02:	43 3a 20             	rex.XB cmp spl,BYTE PTR [r8]
   140004b05:	28 52 65             	sub    BYTE PTR [rdx+0x65],dl
   140004b08:	76 38                	jbe    140004b42 <.rdata$zzz+0x12>
   140004b0a:	2c 20                	sub    al,0x20
   140004b0c:	42 75 69             	rex.X jne 140004b78 <.rdata$zzz+0x18>
   140004b0f:	6c                   	ins    BYTE PTR [rdi],dx
   140004b10:	74 20                	je     140004b32 <.rdata$zzz+0x2>
   140004b12:	62 79 20 4d 53       	(bad)
   140004b17:	59                   	pop    rcx
   140004b18:	53                   	push   rbx
   140004b19:	32 20                	xor    ah,BYTE PTR [rax]
   140004b1b:	70 72                	jo     140004b8f <.rdata$zzz+0x2f>
   140004b1d:	6f                   	outs   dx,DWORD PTR [rsi]
   140004b1e:	6a 65                	push   0x65
   140004b20:	63 74 29 20          	movsxd esi,DWORD PTR [rcx+rbp*1+0x20]
   140004b24:	31 35 2e 32 2e 30    	xor    DWORD PTR [rip+0x302e322e],esi        # 1702e7d58 <.debug_rnglists+0x302c4ca2>
   140004b2a:	00 00                	add    BYTE PTR [rax],al
   140004b2c:	00 00                	add    BYTE PTR [rax],al
	...

0000000140004b30 <.rdata$zzz>:
   140004b30:	47                   	rex.RXB
   140004b31:	43                   	rex.XB
   140004b32:	43 3a 20             	rex.XB cmp spl,BYTE PTR [r8]
   140004b35:	28 52 65             	sub    BYTE PTR [rdx+0x65],dl
   140004b38:	76 38                	jbe    140004b72 <.rdata$zzz+0x12>
   140004b3a:	2c 20                	sub    al,0x20
   140004b3c:	42 75 69             	rex.X jne 140004ba8 <__DTOR_LIST__>
   140004b3f:	6c                   	ins    BYTE PTR [rdi],dx
   140004b40:	74 20                	je     140004b62 <.rdata$zzz+0x2>
   140004b42:	62 79 20 4d 53       	(bad)
   140004b47:	59                   	pop    rcx
   140004b48:	53                   	push   rbx
   140004b49:	32 20                	xor    ah,BYTE PTR [rax]
   140004b4b:	70 72                	jo     140004bbf <___crt_xc_start__+0x7>
   140004b4d:	6f                   	outs   dx,DWORD PTR [rsi]
   140004b4e:	6a 65                	push   0x65
   140004b50:	63 74 29 20          	movsxd esi,DWORD PTR [rcx+rbp*1+0x20]
   140004b54:	31 35 2e 32 2e 30    	xor    DWORD PTR [rip+0x302e322e],esi        # 1702e7d88 <.debug_rnglists+0x302c4cd2>
   140004b5a:	00 00                	add    BYTE PTR [rax],al
   140004b5c:	00 00                	add    BYTE PTR [rax],al
	...

0000000140004b60 <.rdata$zzz>:
   140004b60:	47                   	rex.RXB
   140004b61:	43                   	rex.XB
   140004b62:	43 3a 20             	rex.XB cmp spl,BYTE PTR [r8]
   140004b65:	28 52 65             	sub    BYTE PTR [rdx+0x65],dl
   140004b68:	76 38                	jbe    140004ba2 <.ctors.65535+0xa>
   140004b6a:	2c 20                	sub    al,0x20
   140004b6c:	42 75 69             	rex.X jne 140004bd8 <___crt_xi_end__>
   140004b6f:	6c                   	ins    BYTE PTR [rdi],dx
   140004b70:	74 20                	je     140004b92 <__CTOR_LIST__+0x2>
   140004b72:	62 79 20 4d 53       	(bad)
   140004b77:	59                   	pop    rcx
   140004b78:	53                   	push   rbx
   140004b79:	32 20                	xor    ah,BYTE PTR [rax]
   140004b7b:	70 72                	jo     140004bef <__xl_d+0x7>
   140004b7d:	6f                   	outs   dx,DWORD PTR [rsi]
   140004b7e:	6a 65                	push   0x65
   140004b80:	63 74 29 20          	movsxd esi,DWORD PTR [rcx+rbp*1+0x20]
   140004b84:	31 35 2e 32 2e 30    	xor    DWORD PTR [rip+0x302e322e],esi        # 1702e7db8 <.debug_rnglists+0x302c4d02>
   140004b8a:	00 00                	add    BYTE PTR [rax],al
   140004b8c:	00 00                	add    BYTE PTR [rax],al
	...

0000000140004b90 <__CTOR_LIST__>:
   140004b90:	ff                   	(bad)
   140004b91:	ff                   	(bad)
   140004b92:	ff                   	(bad)
   140004b93:	ff                   	(bad)
   140004b94:	ff                   	(bad)
   140004b95:	ff                   	(bad)
   140004b96:	ff                   	(bad)
   140004b97:	ff         	push   QWORD PTR [rax+0x1400028]

0000000140004b98 <.ctors.65535>:
   140004b98:	b0 28                	mov    al,0x28
   140004b9a:	00 40 01             	add    BYTE PTR [rax+0x1],al
	...

0000000140004ba8 <__DTOR_LIST__>:
   140004ba8:	ff                   	(bad)
   140004ba9:	ff                   	(bad)
   140004baa:	ff                   	(bad)
   140004bab:	ff                   	(bad)
   140004bac:	ff                   	(bad)
   140004bad:	ff                   	(bad)
   140004bae:	ff                   	(bad)
   140004baf:	ff 00                	inc    DWORD PTR [rax]
   140004bb1:	00 00                	add    BYTE PTR [rax],al
   140004bb3:	00 00                	add    BYTE PTR [rax],al
   140004bb5:	00 00                	add    BYTE PTR [rax],al
	...

0000000140004bb8 <___crt_xc_start__>:
	...

0000000140004bc0 <__xc_z>:
	...

0000000140004bc8 <___crt_xc_end__>:
	...

0000000140004bd0 <__xi_z>:
	...

0000000140004bd8 <___crt_xi_end__>:
	...

0000000140004be0 <__xl_c>:
   140004be0:	a0 15 00 40 01 00 00 	movabs al,ds:0x8000000001400015
   140004be7:	00  

0000000140004be8 <__xl_d>:
   140004be8:	80 15 00 40 01 00 00 	adc    BYTE PTR [rip+0x14000],0x0        # 140018bef <.debug_abbrev+0x20>
	...

0000000140004bf0 <__xl_z>:
	...

0000000140004bf8 <___crt_xd_start__>:
	...

0000000140004c00 <__xd_z>:
	...

Disassembly of section .pdata:

0000000140005000 <.pdata>:
   140005000:	00 10                	add    BYTE PTR [rax],dl
   140005002:	00 00                	add    BYTE PTR [rax],al
   140005004:	01 10                	add    DWORD PTR [rax],edx
   140005006:	00 00                	add    BYTE PTR [rax],al
   140005008:	00 60 00             	add    BYTE PTR [rax+0x0],ah
   14000500b:	00 10                	add    BYTE PTR [rax],dl
   14000500d:	10 00                	adc    BYTE PTR [rax],al
   14000500f:	00 da                	add    dl,bl
   140005011:	13 00                	adc    eax,DWORD PTR [rax]
   140005013:	00 04 60             	add    BYTE PTR [rax+riz*2],al
   140005016:	00 00                	add    BYTE PTR [rax],al
   140005018:	e0 13                	loopne 14000502d <.pdata+0x2d>
   14000501a:	00 00                	add    BYTE PTR [rax],al
   14000501c:	fd                   	std
   14000501d:	13 00                	adc    eax,DWORD PTR [rax]
   14000501f:	00 1c 60             	add    BYTE PTR [rax+riz*2],bl
   140005022:	00 00                	add    BYTE PTR [rax],al
   140005024:	00 14 00             	add    BYTE PTR [rax+rax*1],dl
   140005027:	00 1d 14 00 00 3c    	add    BYTE PTR [rip+0x3c000014],bl        # 17c005041 <.debug_rnglists+0x3bfe1f8b>
   14000502d:	60                   	(bad)
   14000502e:	00 00                	add    BYTE PTR [rax],al
   140005030:	20 14 00             	and    BYTE PTR [rax+rax*1],dl
   140005033:	00 25 14 00 00 5c    	add    BYTE PTR [rip+0x5c000014],ah        # 19c00504d <.debug_rnglists+0x5bfe1f97>
   140005039:	60                   	(bad)
	...

000000014000503c <.pdata>:
   14000503c:	30 14 00             	xor    BYTE PTR [rax+rax*1],dl
   14000503f:	00 3c 14             	add    BYTE PTR [rsp+rdx*1],bh
   140005042:	00 00                	add    BYTE PTR [rax],al
   140005044:	60                   	(bad)
   140005045:	60                   	(bad)
   140005046:	00 00                	add    BYTE PTR [rax],al
   140005048:	40 14 00             	rex adc al,0x0
   14000504b:	00 41 14             	add    BYTE PTR [rcx+0x14],al
   14000504e:	00 00                	add    BYTE PTR [rax],al
   140005050:	64 60                	fs (bad)
	...

0000000140005054 <.pdata>:
   140005054:	50                   	push   rax
   140005055:	14 00                	adc    al,0x0
   140005057:	00 76 14             	add    BYTE PTR [rsi+0x14],dh
   14000505a:	00 00                	add    BYTE PTR [rax],al
   14000505c:	68 60 00 00        	push   0xffffffff80000060

0000000140005060 <.pdata.startup>:
   140005060:	80 14 00 00          	adc    BYTE PTR [rax+rax*1],0x0
   140005064:	c2 14 00             	ret    0x14
   140005067:	00 74 60 00          	add    BYTE PTR [rax+riz*2+0x0],dh
	...

000000014000506c <.pdata>:
   14000506c:	d0 14 00             	rcl    BYTE PTR [rax+rax*1],1
   14000506f:	00 42 15             	add    BYTE PTR [rdx+0x15],al
   140005072:	00 00                	add    BYTE PTR [rax],al
   140005074:	7c 60                	jl     1400050d6 <.pdata+0xa>
   140005076:	00 00                	add    BYTE PTR [rax],al
   140005078:	50                   	push   rax
   140005079:	15 00 00 6f 15       	adc    eax,0x156f0000
   14000507e:	00 00                	add    BYTE PTR [rax],al
   140005080:	88 60 00             	mov    BYTE PTR [rax+0x0],ah
   140005083:	00 70 15             	add    BYTE PTR [rax+0x15],dh
   140005086:	00 00                	add    BYTE PTR [rax],al
   140005088:	73 15                	jae    14000509f <.pdata+0x3>
   14000508a:	00 00                	add    BYTE PTR [rax],al
   14000508c:	8c 60 00             	mov    WORD PTR [rax+0x0],fs
	...

0000000140005090 <.pdata>:
   140005090:	80 15 00 00 95 15 00 	adc    BYTE PTR [rip+0x15950000],0x0        # 155955097 <.debug_rnglists+0x15931fe1>
   140005097:	00 90 60 00 00     	add    BYTE PTR [rax-0x5fffffa0],dl

000000014000509c <.pdata>:
   14000509c:	a0 15 00 00 1b 16 00 	movabs al,ds:0x940000161b000015
   1400050a3:	00 94 
   1400050a5:	60                   	(bad)
   1400050a6:	00 00                	add    BYTE PTR [rax],al
   1400050a8:	20 16                	and    BYTE PTR [rsi],dl
   1400050aa:	00 00                	add    BYTE PTR [rax],al
   1400050ac:	23 16                	and    edx,DWORD PTR [rsi]
   1400050ae:	00 00                	add    BYTE PTR [rax],al
   1400050b0:	a0 60 00 00 30 16 00 	movabs al,ds:0x2800001630000060
   1400050b7:	00 28 
   1400050b9:	17                   	(bad)
   1400050ba:	00 00                	add    BYTE PTR [rax],al
   1400050bc:	a4                   	movs   BYTE PTR [rdi],BYTE PTR [rsi]
   1400050bd:	60                   	(bad)
	...

00000001400050c0 <.pdata>:
   1400050c0:	30 17                	xor    BYTE PTR [rdi],dl
   1400050c2:	00 00                	add    BYTE PTR [rax],al
   1400050c4:	8e 17                	mov    ss,WORD PTR [rdi]
   1400050c6:	00 00                	add    BYTE PTR [rax],al
   1400050c8:	bc 60 00 00        	mov    esp,0x90000060

00000001400050cc <.pdata>:
   1400050cc:	90                   	nop
   1400050cd:	17                   	(bad)
   1400050ce:	00 00                	add    BYTE PTR [rax],al
   1400050d0:	f2 18 00             	repnz sbb BYTE PTR [rax],al
   1400050d3:	00 c8                	add    al,cl
   1400050d5:	60                   	(bad)
   1400050d6:	00 00                	add    BYTE PTR [rax],al
   1400050d8:	00 19                	add    BYTE PTR [rcx],bl
   1400050da:	00 00                	add    BYTE PTR [rax],al
   1400050dc:	90                   	nop
   1400050dd:	1c 00                	sbb    al,0x0
   1400050df:	00 d4                	add    ah,dl
   1400050e1:	60                   	(bad)
   1400050e2:	00 00                	add    BYTE PTR [rax],al
   1400050e4:	90                   	nop
   1400050e5:	1c 00                	sbb    al,0x0
   1400050e7:	00 ce                	add    dh,cl
   1400050e9:	1c 00                	sbb    al,0x0
   1400050eb:	00 ec                	add    ah,ch
   1400050ed:	60                   	(bad)
	...

00000001400050f0 <.pdata>:
   1400050f0:	d0 1c 00             	rcr    BYTE PTR [rax+rax*1],1
   1400050f3:	00 dc                	add    ah,bl
   1400050f5:	1c 00                	sbb    al,0x0
   1400050f7:	00 f4                	add    ah,dh
   1400050f9:	60                   	(bad)
   1400050fa:	00 00                	add    BYTE PTR [rax],al
   1400050fc:	e0 1c                	loopne 14000511a <.pdata+0x6>
   1400050fe:	00 00                	add    BYTE PTR [rax],al
   140005100:	9d                   	popf
   140005101:	1e                   	(bad)
   140005102:	00 00                	add    BYTE PTR [rax],al
   140005104:	f8                   	clc
   140005105:	60                   	(bad)
	...

0000000140005108 <.pdata>:
   140005108:	a0 1e 00 00 0a 1f 00 	movabs al,ds:0x1f0a00001e
   14000510f:	00 00 
   140005111:	61                   	(bad)
	...

0000000140005114 <.pdata>:
   140005114:	10 1f                	adc    BYTE PTR [rdi],bl
   140005116:	00 00                	add    BYTE PTR [rax],al
   140005118:	9e                   	sahf
   140005119:	1f                   	(bad)
   14000511a:	00 00                	add    BYTE PTR [rax],al
   14000511c:	10 61 00             	adc    BYTE PTR [rcx+0x0],ah
   14000511f:	00 a0 1f 00 00 29    	add    BYTE PTR [rax+0x2900001f],ah
   140005125:	20 00                	and    BYTE PTR [rax],al
   140005127:	00 18                	add    BYTE PTR [rax],bl
   140005129:	61                   	(bad)
   14000512a:	00 00                	add    BYTE PTR [rax],al
   14000512c:	30 20                	xor    BYTE PTR [rax],ah
   14000512e:	00 00                	add    BYTE PTR [rax],al
   140005130:	32 21                	xor    ah,BYTE PTR [rcx]
   140005132:	00 00                	add    BYTE PTR [rax],al
   140005134:	20 61 00             	and    BYTE PTR [rcx+0x0],ah
   140005137:	00 40 21             	add    BYTE PTR [rax+0x21],al
   14000513a:	00 00                	add    BYTE PTR [rax],al
   14000513c:	43 21 00             	rex.XB and DWORD PTR [r8],eax
   14000513f:	00 28                	add    BYTE PTR [rax],ch
   140005141:	61                   	(bad)
	...

0000000140005144 <.pdata>:
   140005144:	50                   	push   rax
   140005145:	21 00                	and    DWORD PTR [rax],eax
   140005147:	00 7c 21 00          	add    BYTE PTR [rcx+riz*1+0x0],bh
   14000514b:	00 2c 61             	add    BYTE PTR [rcx+riz*2],ch
	...

0000000140005150 <.pdata>:
   140005150:	80 21 00             	and    BYTE PTR [rcx],0x0
   140005153:	00 d0                	add    al,dl
   140005155:	21 00                	and    DWORD PTR [rax],eax
   140005157:	00 30                	add    BYTE PTR [rax],dh
   140005159:	61                   	(bad)
   14000515a:	00 00                	add    BYTE PTR [rax],al
   14000515c:	d0 21                	shl    BYTE PTR [rcx],1
   14000515e:	00 00                	add    BYTE PTR [rax],al
   140005160:	66 22 00             	data16 and al,BYTE PTR [rax]
   140005163:	00 34 61             	add    BYTE PTR [rcx+riz*2],dh
   140005166:	00 00                	add    BYTE PTR [rax],al
   140005168:	70 22                	jo     14000518c <.pdata+0x3c>
   14000516a:	00 00                	add    BYTE PTR [rax],al
   14000516c:	f0 22 00             	lock and al,BYTE PTR [rax]
   14000516f:	00 44 61 00          	add    BYTE PTR [rcx+riz*2+0x0],al
   140005173:	00 f0                	add    al,dh
   140005175:	22 00                	and    al,BYTE PTR [rax]
   140005177:	00 27                	add    BYTE PTR [rdi],ah
   140005179:	23 00                	and    eax,DWORD PTR [rax]
   14000517b:	00 48 61             	add    BYTE PTR [rax+0x61],cl
   14000517e:	00 00                	add    BYTE PTR [rax],al
   140005180:	30 23                	xor    BYTE PTR [rbx],ah
   140005182:	00 00                	add    BYTE PTR [rax],al
   140005184:	ab                   	stos   DWORD PTR [rdi],eax
   140005185:	23 00                	and    eax,DWORD PTR [rax]
   140005187:	00 4c 61 00          	add    BYTE PTR [rcx+riz*2+0x0],cl
   14000518b:	00 b0 23 00 00 e6    	add    BYTE PTR [rax-0x19ffffdd],dh
   140005191:	23 00                	and    eax,DWORD PTR [rax]
   140005193:	00 50 61             	add    BYTE PTR [rax+0x61],dl
   140005196:	00 00                	add    BYTE PTR [rax],al
   140005198:	f0 23 00             	lock and eax,DWORD PTR [rax]
   14000519b:	00 79 24             	add    BYTE PTR [rcx+0x24],bh
   14000519e:	00 00                	add    BYTE PTR [rax],al
   1400051a0:	54                   	push   rsp
   1400051a1:	61                   	(bad)
   1400051a2:	00 00                	add    BYTE PTR [rax],al
   1400051a4:	80 24 00 00          	and    BYTE PTR [rax+rax*1],0x0
   1400051a8:	36 25 00 00 58 61    	ss and eax,0x61580000
   1400051ae:	00 00                	add    BYTE PTR [rax],al
   1400051b0:	80 25 00 00 b3 25 00 	and    BYTE PTR [rip+0x25b30000],0x0        # 165b351b7 <.debug_rnglists+0x25b12101>
   1400051b7:	00 5c 61 00          	add    BYTE PTR [rcx+riz*2+0x0],bl
	...

00000001400051bc <.pdata>:
   1400051bc:	c0 25 00 00 13 26 00 	shl    BYTE PTR [rip+0x26130000],0x0        # 1661351c3 <.debug_rnglists+0x2611210d>
   1400051c3:	00 68 61             	add    BYTE PTR [rax+0x61],ch
	...

00000001400051c8 <.pdata>:
   1400051c8:	20 26                	and    BYTE PTR [rsi],ah
   1400051ca:	00 00                	add    BYTE PTR [rax],al
   1400051cc:	64 26 00 00          	fs add BYTE PTR fs:[rax],al
   1400051d0:	74 61                	je     140005233 <.pdata.startup+0x23>
	...

00000001400051d4 <.pdata>:
   1400051d4:	70 26                	jo     1400051fc <.pdata+0x4>
   1400051d6:	00 00                	add    BYTE PTR [rax],al
   1400051d8:	78 26                	js     140005200 <.pdata+0x8>
   1400051da:	00 00                	add    BYTE PTR [rax],al
   1400051dc:	80 61 00 00          	and    BYTE PTR [rcx+0x0],0x0

00000001400051e0 <.pdata>:
   1400051e0:	80 26 00             	and    BYTE PTR [rsi],0x0
   1400051e3:	00 8b 26 00 00 84    	add    BYTE PTR [rbx-0x7bffffda],cl
   1400051e9:	61                   	(bad)
	...

00000001400051ec <.pdata>:
   1400051ec:	90                   	nop
   1400051ed:	26 00 00             	es add BYTE PTR [rax],al
   1400051f0:	be 26 00 00 88       	mov    esi,0x88000026
   1400051f5:	61                   	(bad)
	...

00000001400051f8 <.pdata>:
   1400051f8:	c0 26 00             	shl    BYTE PTR [rsi],0x0
   1400051fb:	00 1f                	add    BYTE PTR [rdi],bl
   1400051fd:	27                   	(bad)
   1400051fe:	00 00                	add    BYTE PTR [rax],al
   140005200:	90                   	nop
   140005201:	61                   	(bad)
	...

0000000140005204 <.pdata>:
   140005204:	70 28                	jo     14000522e <.pdata.startup+0x1e>
   140005206:	00 00                	add    BYTE PTR [rax],al
   140005208:	a1 28 00 00 6c 60 00 	movabs eax,ds:0xb00000606c000028
   14000520f:	00  

0000000140005210 <.pdata.startup>:
   140005210:	b0 28                	mov    al,0x28
   140005212:	00 00                	add    BYTE PTR [rax],al
   140005214:	b5 28                	mov    ch,0x28
   140005216:	00 00                	add    BYTE PTR [rax],al
   140005218:	a0                   	.byte 0xa0
   140005219:	61                   	(bad)
	...

Disassembly of section .xdata:

0000000140006000 <.xdata>:
   140006000:	01 00                	add    DWORD PTR [rax],eax
   140006002:	00 00                	add    BYTE PTR [rax],al
   140006004:	01 10                	add    DWORD PTR [rax],edx
   140006006:	09 00                	or     DWORD PTR [rax],eax
   140006008:	10 a2 0c 30 0b 60    	adc    BYTE PTR [rdx+0x600b300c],ah
   14000600e:	0a 70 09             	or     dh,BYTE PTR [rax+0x9]
   140006011:	50                   	push   rax
   140006012:	08 c0                	or     al,al
   140006014:	06                   	(bad)
   140006015:	d0 04 e0             	rol    BYTE PTR [rax+riz*8],1
   140006018:	02 f0                	add    dh,al
   14000601a:	00 00                	add    BYTE PTR [rax],al
   14000601c:	09 04 01             	or     DWORD PTR [rcx+rax*1],eax
   14000601f:	00 04 42             	add    BYTE PTR [rdx+rax*2],al
   140006022:	00 00                	add    BYTE PTR [rax],al
   140006024:	c0 27 00             	shl    BYTE PTR [rdi],0x0
   140006027:	00 01                	add    BYTE PTR [rcx],al
   140006029:	00 00                	add    BYTE PTR [rax],al
   14000602b:	00 e4                	add    ah,ah
   14000602d:	13 00                	adc    eax,DWORD PTR [rax]
   14000602f:	00 f7                	add    bh,dh
   140006031:	13 00                	adc    eax,DWORD PTR [rax]
   140006033:	00 e0                	add    al,ah
   140006035:	1c 00                	sbb    al,0x0
   140006037:	00 f7                	add    bh,dh
   140006039:	13 00                	adc    eax,DWORD PTR [rax]
   14000603b:	00 09                	add    BYTE PTR [rcx],cl
   14000603d:	04 01                	add    al,0x1
   14000603f:	00 04 42             	add    BYTE PTR [rdx+rax*2],al
   140006042:	00 00                	add    BYTE PTR [rax],al
   140006044:	c0 27 00             	shl    BYTE PTR [rdi],0x0
   140006047:	00 01                	add    BYTE PTR [rcx],al
   140006049:	00 00                	add    BYTE PTR [rax],al
   14000604b:	00 04 14             	add    BYTE PTR [rsp+rdx*1],al
   14000604e:	00 00                	add    BYTE PTR [rax],al
   140006050:	17                   	(bad)
   140006051:	14 00                	adc    al,0x0
   140006053:	00 e0                	add    al,ah
   140006055:	1c 00                	sbb    al,0x0
   140006057:	00 17                	add    BYTE PTR [rdi],dl
   140006059:	14 00                	adc    al,0x0
   14000605b:	00 01                	add    BYTE PTR [rcx],al
   14000605d:	00 00                	add    BYTE PTR [rax],al
	...

0000000140006060 <.xdata>:
   140006060:	01 00                	add    DWORD PTR [rax],eax
   140006062:	00 00                	add    BYTE PTR [rax],al
   140006064:	01 00                	add    DWORD PTR [rax],eax
	...

0000000140006068 <.xdata>:
   140006068:	01 00                	add    DWORD PTR [rax],eax
	...

000000014000606c <.xdata.startup>:
   14000606c:	01 04 01             	add    DWORD PTR [rcx+rax*1],eax
   14000606f:	00 04 42             	add    BYTE PTR [rdx+rax*2],al
	...

0000000140006074 <.xdata>:
   140006074:	01 04 01             	add    DWORD PTR [rcx+rax*1],eax
   140006077:	00 04 42             	add    BYTE PTR [rdx+rax*2],al
   14000607a:	00 00                	add    BYTE PTR [rax],al
   14000607c:	01 06                	add    DWORD PTR [rsi],eax
   14000607e:	03 00                	add    eax,DWORD PTR [rax]
   140006080:	06                   	(bad)
   140006081:	42 02 30             	rex.X add sil,BYTE PTR [rax]
   140006084:	01 60 00             	add    DWORD PTR [rax+0x0],esp
   140006087:	00 01                	add    BYTE PTR [rcx],al
   140006089:	00 00                	add    BYTE PTR [rax],al
	...

000000014000608c <.xdata>:
   14000608c:	01 00                	add    DWORD PTR [rax],eax
	...

0000000140006090 <.xdata>:
   140006090:	01 00                	add    DWORD PTR [rax],eax
   140006092:	00 00                	add    BYTE PTR [rax],al
   140006094:	01 06                	add    DWORD PTR [rsi],eax
   140006096:	03 00                	add    eax,DWORD PTR [rax]
   140006098:	06                   	(bad)
   140006099:	42 02 30             	rex.X add sil,BYTE PTR [rax]
   14000609c:	01 60 00             	add    DWORD PTR [rax+0x0],esp
   14000609f:	00 01                	add    BYTE PTR [rcx],al
   1400060a1:	00 00                	add    BYTE PTR [rax],al
	...

00000001400060a4 <.xdata>:
   1400060a4:	01 16                	add    DWORD PTR [rsi],edx
   1400060a6:	09 00                	or     DWORD PTR [rax],eax
   1400060a8:	16                   	(bad)
   1400060a9:	88 06                	mov    BYTE PTR [rsi],al
   1400060ab:	00 10                	add    BYTE PTR [rax],dl
   1400060ad:	78 05                	js     1400060b4 <.xdata+0x10>
   1400060af:	00 0b                	add    BYTE PTR [rbx],cl
   1400060b1:	68 04 00 06 e2       	push   0xffffffffe2060004
   1400060b6:	02 30                	add    dh,BYTE PTR [rax]
   1400060b8:	01 60 00             	add    DWORD PTR [rax+0x0],esp
	...

00000001400060bc <.xdata>:
   1400060bc:	01 06                	add    DWORD PTR [rsi],eax
   1400060be:	03 00                	add    eax,DWORD PTR [rax]
   1400060c0:	06                   	(bad)
   1400060c1:	62 02 30 01 60       	(bad)
   1400060c6:	00 00                	add    BYTE PTR [rax],al
   1400060c8:	01 07                	add    DWORD PTR [rdi],eax
   1400060ca:	04 00                	add    al,0x0
   1400060cc:	07                   	(bad)
   1400060cd:	92                   	xchg   edx,eax
   1400060ce:	03 30                	add    esi,DWORD PTR [rax]
   1400060d0:	02 60 01             	add    ah,BYTE PTR [rax+0x1]
   1400060d3:	70 01                	jo     1400060d6 <.xdata+0x1a>
   1400060d5:	15 0a 45 15 03       	adc    eax,0x315450a
   1400060da:	10 82 0c 30 0b 60    	adc    BYTE PTR [rdx+0x600b300c],al
   1400060e0:	0a 70 09             	or     dh,BYTE PTR [rax+0x9]
   1400060e3:	c0 07 d0             	rol    BYTE PTR [rdi],0xd0
   1400060e6:	05 e0 03 f0 01       	add    eax,0x1f003e0
   1400060eb:	50                   	push   rax

00000001400060ec <.xdata>:
   1400060ec:	01 04 01             	add    DWORD PTR [rcx+rax*1],eax
   1400060ef:	00 04 a2             	add    BYTE PTR [rdx+riz*4],al
   1400060f2:	00 00                	add    BYTE PTR [rax],al
   1400060f4:	01 00                	add    DWORD PTR [rax],eax
	...

00000001400060f8 <.xdata>:
   1400060f8:	01 05 02 00 05 32    	add    DWORD PTR [rip+0x32050002],eax        # 172056100 <.debug_rnglists+0x3203304a>
   1400060fe:	01 30                	add    DWORD PTR [rax],esi

0000000140006100 <.xdata>:
   140006100:	01 08                	add    DWORD PTR [rax],ecx
   140006102:	05 00 08 42 04       	add    eax,0x4420800
   140006107:	30 03                	xor    BYTE PTR [rbx],al
   140006109:	60                   	(bad)
   14000610a:	02 70 01             	add    dh,BYTE PTR [rax+0x1]
   14000610d:	50                   	push   rax
   14000610e:	00 00                	add    BYTE PTR [rax],al
   140006110:	01 04 01             	add    DWORD PTR [rcx+rax*1],eax
   140006113:	00 04 62             	add    BYTE PTR [rdx+riz*2],al
   140006116:	00 00                	add    BYTE PTR [rax],al
   140006118:	01 04 01             	add    DWORD PTR [rcx+rax*1],eax
   14000611b:	00 04 42             	add    BYTE PTR [rdx+rax*2],al
   14000611e:	00 00                	add    BYTE PTR [rax],al
   140006120:	01 04 01             	add    DWORD PTR [rcx+rax*1],eax
   140006123:	00 04 62             	add    BYTE PTR [rdx+riz*2],al
	...

0000000140006128 <.xdata>:
   140006128:	01 00                	add    DWORD PTR [rax],eax
	...

000000014000612c <.xdata>:
   14000612c:	01 00                	add    DWORD PTR [rax],eax
   14000612e:	00 00                	add    BYTE PTR [rax],al
   140006130:	01 00                	add    DWORD PTR [rax],eax
   140006132:	00 00                	add    BYTE PTR [rax],al
   140006134:	01 08                	add    DWORD PTR [rax],ecx
   140006136:	05 00 08 42 04       	add    eax,0x4420800
   14000613b:	30 03                	xor    BYTE PTR [rbx],al
   14000613d:	60                   	(bad)
   14000613e:	02 70 01             	add    dh,BYTE PTR [rax+0x1]
   140006141:	50                   	push   rax
   140006142:	00 00                	add    BYTE PTR [rax],al
   140006144:	01 00                	add    DWORD PTR [rax],eax
   140006146:	00 00                	add    BYTE PTR [rax],al
   140006148:	01 00                	add    DWORD PTR [rax],eax
   14000614a:	00 00                	add    BYTE PTR [rax],al
   14000614c:	01 00                	add    DWORD PTR [rax],eax
   14000614e:	00 00                	add    BYTE PTR [rax],al
   140006150:	01 00                	add    DWORD PTR [rax],eax
   140006152:	00 00                	add    BYTE PTR [rax],al
   140006154:	01 00                	add    DWORD PTR [rax],eax
   140006156:	00 00                	add    BYTE PTR [rax],al
   140006158:	01 00                	add    DWORD PTR [rax],eax
	...

000000014000615c <.xdata>:
   14000615c:	01 07                	add    DWORD PTR [rdi],eax
   14000615e:	04 00                	add    al,0x0
   140006160:	07                   	(bad)
   140006161:	52                   	push   rdx
   140006162:	03 30                	add    esi,DWORD PTR [rax]
   140006164:	02 60 01             	add    ah,BYTE PTR [rax+0x1]
   140006167:	70                 	jo     14000616a <.xdata+0x2>

0000000140006168 <.xdata>:
   140006168:	01 07                	add    DWORD PTR [rdi],eax
   14000616a:	04 00                	add    al,0x0
   14000616c:	07                   	(bad)
   14000616d:	72 03                	jb     140006172 <.xdata+0xa>
   14000616f:	30 02                	xor    BYTE PTR [rdx],al
   140006171:	60                   	(bad)
   140006172:	01 70              	add    DWORD PTR [rax+0x1],esi

0000000140006174 <.xdata>:
   140006174:	01 07                	add    DWORD PTR [rdi],eax
   140006176:	04 00                	add    al,0x0
   140006178:	07                   	(bad)
   140006179:	72 03                	jb     14000617e <.xdata+0xa>
   14000617b:	30 02                	xor    BYTE PTR [rdx],al
   14000617d:	60                   	(bad)
   14000617e:	01 70              	add    DWORD PTR [rax+0x1],esi

0000000140006180 <.xdata>:
   140006180:	01 00                	add    DWORD PTR [rax],eax
	...

0000000140006184 <.xdata>:
   140006184:	01 00                	add    DWORD PTR [rax],eax
	...

0000000140006188 <.xdata>:
   140006188:	01 05 02 00 05 32    	add    DWORD PTR [rip+0x32050002],eax        # 172056190 <.debug_rnglists+0x320330da>
   14000618e:	01 30                	add    DWORD PTR [rax],esi

0000000140006190 <.xdata>:
   140006190:	01 08                	add    DWORD PTR [rax],ecx
   140006192:	05 00 08 42 04       	add    eax,0x4420800
   140006197:	30 03                	xor    BYTE PTR [rbx],al
   140006199:	60                   	(bad)
   14000619a:	02 70 01             	add    dh,BYTE PTR [rax+0x1]
   14000619d:	50                   	push   rax
	...

00000001400061a0 <.xdata.startup>:
   1400061a0:	01 00                	add    DWORD PTR [rax],eax
	...

Disassembly of section .idata:

0000000140008000 <_head_lib64_libkernel32_a>:
   140008000:	c8 80 00 00          	enter  0x80,0x0
	...
   14000800c:	98                   	cwde
   14000800d:	86 00                	xchg   BYTE PTR [rax],al
   14000800f:	00 50 82             	add    BYTE PTR [rax-0x7e],dl
	...

0000000140008014 <_head_lib64_libapi_ms_win_crt_environment_l1_1_0_a>:
   140008014:	20 81 00 00 00 00    	and    BYTE PTR [rcx+0x0],al
   14000801a:	00 00                	add    BYTE PTR [rax],al
   14000801c:	00 00                	add    BYTE PTR [rax],al
   14000801e:	00 00                	add    BYTE PTR [rax],al
   140008020:	ac                   	lods   al,BYTE PTR [rsi]
   140008021:	86 00                	xchg   BYTE PTR [rax],al
   140008023:	00 a8 82 00 00     	add    BYTE PTR [rax+0x30000082],ch

0000000140008028 <_head_lib64_libapi_ms_win_crt_heap_l1_1_0_a>:
   140008028:	30 81 00 00 00 00    	xor    BYTE PTR [rcx+0x0],al
   14000802e:	00 00                	add    BYTE PTR [rax],al
   140008030:	00 00                	add    BYTE PTR [rax],al
   140008032:	00 00                	add    BYTE PTR [rax],al
   140008034:	e4 86                	in     al,0x86
   140008036:	00 00                	add    BYTE PTR [rax],al
   140008038:	b8 82 00 00        	mov    eax,0x58000082

000000014000803c <_head_lib64_libapi_ms_win_crt_locale_l1_1_0_a>:
   14000803c:	58                   	pop    rax
   14000803d:	81 00 00 00 00 00    	add    DWORD PTR [rax],0x0
   140008043:	00 00                	add    BYTE PTR [rax],al
   140008045:	00 00                	add    BYTE PTR [rax],al
   140008047:	00 08                	add    BYTE PTR [rax],cl
   140008049:	87 00                	xchg   DWORD PTR [rax],eax
   14000804b:	00 e0                	add    al,ah
   14000804d:	82                   	(bad)
	...

0000000140008050 <_head_lib64_libapi_ms_win_crt_math_l1_1_0_a>:
   140008050:	68 81 00 00 00       	push   0x81
   140008055:	00 00                	add    BYTE PTR [rax],al
   140008057:	00 00                	add    BYTE PTR [rax],al
   140008059:	00 00                	add    BYTE PTR [rax],al
   14000805b:	00 34 87             	add    BYTE PTR [rdi+rax*4],dh
   14000805e:	00 00                	add    BYTE PTR [rax],al
   140008060:	f0 82                	lock (bad)
	...

0000000140008064 <_head_lib64_libapi_ms_win_crt_private_l1_1_0_a>:
   140008064:	80 81 00 00 00 00 00 	add    BYTE PTR [rcx+0x0],0x0
   14000806b:	00 00                	add    BYTE PTR [rax],al
   14000806d:	00 00                	add    BYTE PTR [rax],al
   14000806f:	00 5c 87 00          	add    BYTE PTR [rdi+rax*4+0x0],bl
   140008073:	00 08                	add    BYTE PTR [rax],cl
   140008075:	83 00 00             	add    DWORD PTR [rax],0x0

0000000140008078 <_head_lib64_libapi_ms_win_crt_runtime_l1_1_0_a>:
   140008078:	98                   	cwde
   140008079:	81 00 00 00 00 00    	add    DWORD PTR [rax],0x0
   14000807f:	00 00                	add    BYTE PTR [rax],al
   140008081:	00 00                	add    BYTE PTR [rax],al
   140008083:	00 b8 87 00 00 20    	add    BYTE PTR [rax+0x20000087],bh
   140008089:	83 00 00             	add    DWORD PTR [rax],0x0

000000014000808c <_head_lib64_libapi_ms_win_crt_stdio_l1_1_0_a>:
   14000808c:	10 82 00 00 00 00    	adc    BYTE PTR [rdx+0x0],al
   140008092:	00 00                	add    BYTE PTR [rax],al
   140008094:	00 00                	add    BYTE PTR [rax],al
   140008096:	00 00                	add    BYTE PTR [rax],al
   140008098:	ec                   	in     al,dx
   140008099:	87 00                	xchg   DWORD PTR [rax],eax
   14000809b:	00 98 83 00 00     	add    BYTE PTR [rax+0x38000083],bl

00000001400080a0 <_head_lib64_libapi_ms_win_crt_string_l1_1_0_a>:
   1400080a0:	38 82 00 00 00 00    	cmp    BYTE PTR [rdx+0x0],al
   1400080a6:	00 00                	add    BYTE PTR [rax],al
   1400080a8:	00 00                	add    BYTE PTR [rax],al
   1400080aa:	00 00                	add    BYTE PTR [rax],al
   1400080ac:	14 88                	adc    al,0x88
   1400080ae:	00 00                	add    BYTE PTR [rax],al
   1400080b0:	c0 83 00 00 00 00 00 	rol    BYTE PTR [rbx+0x0],0x0
	...

00000001400080c8 <hname>:
   1400080c8:	d8 83 00 00 00 00    	fadd   DWORD PTR [rbx+0x0]
	...

00000001400080d0 <.idata$4>:
   1400080d0:	f0 83 00 00          	lock add DWORD PTR [rax],0x0
   1400080d4:	00 00                	add    BYTE PTR [rax],al
	...

00000001400080d8 <.idata$4>:
   1400080d8:	08 84 00 00 00 00 00 	or     BYTE PTR [rax+rax*1+0x0],al
	...

00000001400080e0 <.idata$4>:
   1400080e0:	18 84 00 00 00 00 00 	sbb    BYTE PTR [rax+rax*1+0x0],al
	...

00000001400080e8 <.idata$4>:
   1400080e8:	34 84                	xor    al,0x84
   1400080ea:	00 00                	add    BYTE PTR [rax],al
   1400080ec:	00 00                	add    BYTE PTR [rax],al
	...

00000001400080f0 <.idata$4>:
   1400080f0:	4c 84 00             	rex.WR test BYTE PTR [rax],r8b
   1400080f3:	00 00                	add    BYTE PTR [rax],al
   1400080f5:	00 00                	add    BYTE PTR [rax],al
	...

00000001400080f8 <.idata$4>:
   1400080f8:	6a 84                	push   0xffffffffffffff84
   1400080fa:	00 00                	add    BYTE PTR [rax],al
   1400080fc:	00 00                	add    BYTE PTR [rax],al
	...

0000000140008100 <.idata$4>:
   140008100:	72 84                	jb     140008086 <_head_lib64_libapi_ms_win_crt_runtime_l1_1_0_a+0xe>
   140008102:	00 00                	add    BYTE PTR [rax],al
   140008104:	00 00                	add    BYTE PTR [rax],al
	...

0000000140008108 <.idata$4>:
   140008108:	80 84 00 00 00 00 00 	add    BYTE PTR [rax+rax*1+0x0],0x0
   14000810f:	00 

0000000140008110 <.idata$4>:
   140008110:	92                   	xchg   edx,eax
   140008111:	84 00                	test   BYTE PTR [rax],al
   140008113:	00 00                	add    BYTE PTR [rax],al
   140008115:	00 00                	add    BYTE PTR [rax],al
	...

0000000140008118 <.idata$4>:
	...

0000000140008120 <hname>:
   140008120:	a2 84 00 00 00 00 00 	movabs ds:0x84,al
   140008127:	00  

0000000140008128 <.idata$4>:
	...

0000000140008130 <hname>:
   140008130:	b2 84                	mov    dl,0x84
   140008132:	00 00                	add    BYTE PTR [rax],al
   140008134:	00 00                	add    BYTE PTR [rax],al
	...

0000000140008138 <.idata$4>:
   140008138:	c2 84 00             	ret    0x84
   14000813b:	00 00                	add    BYTE PTR [rax],al
   14000813d:	00 00                	add    BYTE PTR [rax],al
	...

0000000140008140 <.idata$4>:
   140008140:	cc                   	int3
   140008141:	84 00                	test   BYTE PTR [rax],al
   140008143:	00 00                	add    BYTE PTR [rax],al
   140008145:	00 00                	add    BYTE PTR [rax],al
	...

0000000140008148 <.idata$4>:
   140008148:	d4                   	(bad)
   140008149:	84 00                	test   BYTE PTR [rax],al
   14000814b:	00 00                	add    BYTE PTR [rax],al
   14000814d:	00 00                	add    BYTE PTR [rax],al
	...

0000000140008150 <.idata$4>:
	...

0000000140008158 <hname>:
   140008158:	de 84 00 00 00 00 00 	fiadd  WORD PTR [rax+rax*1+0x0]
	...

0000000140008160 <.idata$4>:
	...

0000000140008168 <hname>:
   140008168:	f4                   	hlt
   140008169:	84 00                	test   BYTE PTR [rax],al
   14000816b:	00 00                	add    BYTE PTR [rax],al
   14000816d:	00 00                	add    BYTE PTR [rax],al
	...

0000000140008170 <.idata$4>:
   140008170:	08 85 00 00 00 00    	or     BYTE PTR [rbp+0x0],al
	...

0000000140008178 <.idata$4>:
	...

0000000140008180 <hname>:
   140008180:	12 85 00 00 00 00    	adc    al,BYTE PTR [rbp+0x0]
	...

0000000140008188 <.idata$4>:
   140008188:	2a 85 00 00 00 00    	sub    al,BYTE PTR [rbp+0x0]
	...

0000000140008190 <.idata$4>:
	...

0000000140008198 <hname>:
   140008198:	34 85                	xor    al,0x85
   14000819a:	00 00                	add    BYTE PTR [rax],al
   14000819c:	00 00                	add    BYTE PTR [rax],al
	...

00000001400081a0 <.idata$4>:
   1400081a0:	42 85 00             	rex.X test DWORD PTR [rax],eax
   1400081a3:	00 00                	add    BYTE PTR [rax],al
   1400081a5:	00 00                	add    BYTE PTR [rax],al
	...

00000001400081a8 <.idata$4>:
   1400081a8:	50                   	push   rax
   1400081a9:	85 00                	test   DWORD PTR [rax],eax
   1400081ab:	00 00                	add    BYTE PTR [rax],al
   1400081ad:	00 00                	add    BYTE PTR [rax],al
	...

00000001400081b0 <.idata$4>:
   1400081b0:	5a                   	pop    rdx
   1400081b1:	85 00                	test   DWORD PTR [rax],eax
   1400081b3:	00 00                	add    BYTE PTR [rax],al
   1400081b5:	00 00                	add    BYTE PTR [rax],al
	...

00000001400081b8 <.idata$4>:
   1400081b8:	74 85                	je     14000813f <.idata$4+0x7>
   1400081ba:	00 00                	add    BYTE PTR [rax],al
   1400081bc:	00 00                	add    BYTE PTR [rax],al
	...

00000001400081c0 <.idata$4>:
   1400081c0:	82                   	(bad)
   1400081c1:	85 00                	test   DWORD PTR [rax],eax
   1400081c3:	00 00                	add    BYTE PTR [rax],al
   1400081c5:	00 00                	add    BYTE PTR [rax],al
	...

00000001400081c8 <.idata$4>:
   1400081c8:	8a 85 00 00 00 00    	mov    al,BYTE PTR [rbp+0x0]
	...

00000001400081d0 <.idata$4>:
   1400081d0:	ac                   	lods   al,BYTE PTR [rsi]
   1400081d1:	85 00                	test   DWORD PTR [rax],eax
   1400081d3:	00 00                	add    BYTE PTR [rax],al
   1400081d5:	00 00                	add    BYTE PTR [rax],al
	...

00000001400081d8 <.idata$4>:
   1400081d8:	bc 85 00 00 00       	mov    esp,0x85
   1400081dd:	00 00                	add    BYTE PTR [rax],al
	...

00000001400081e0 <.idata$4>:
   1400081e0:	c8 85 00 00          	enter  0x85,0x0
   1400081e4:	00 00                	add    BYTE PTR [rax],al
	...

00000001400081e8 <.idata$4>:
   1400081e8:	d6                   	(bad)
   1400081e9:	85 00                	test   DWORD PTR [rax],eax
   1400081eb:	00 00                	add    BYTE PTR [rax],al
   1400081ed:	00 00                	add    BYTE PTR [rax],al
	...

00000001400081f0 <.idata$4>:
   1400081f0:	f8                   	clc
   1400081f1:	85 00                	test   DWORD PTR [rax],eax
   1400081f3:	00 00                	add    BYTE PTR [rax],al
   1400081f5:	00 00                	add    BYTE PTR [rax],al
	...

00000001400081f8 <.idata$4>:
   1400081f8:	00 86 00 00 00 00    	add    BYTE PTR [rsi+0x0],al
	...

0000000140008200 <.idata$4>:
   140008200:	08 86 00 00 00 00    	or     BYTE PTR [rsi+0x0],al
	...

0000000140008208 <.idata$4>:
	...

0000000140008210 <hname>:
   140008210:	12 86 00 00 00 00    	adc    al,BYTE PTR [rsi+0x0]
	...

0000000140008218 <.idata$4>:
   140008218:	24 86                	and    al,0x86
   14000821a:	00 00                	add    BYTE PTR [rax],al
   14000821c:	00 00                	add    BYTE PTR [rax],al
	...

0000000140008220 <.idata$4>:
   140008220:	34 86                	xor    al,0x86
   140008222:	00 00                	add    BYTE PTR [rax],al
   140008224:	00 00                	add    BYTE PTR [rax],al
	...

0000000140008228 <.idata$4>:
   140008228:	42 86 00             	rex.X xchg BYTE PTR [rax],al
   14000822b:	00 00                	add    BYTE PTR [rax],al
   14000822d:	00 00                	add    BYTE PTR [rax],al
	...

0000000140008230 <.idata$4>:
	...

0000000140008238 <hname>:
   140008238:	5c                   	pop    rsp
   140008239:	86 00                	xchg   BYTE PTR [rax],al
   14000823b:	00 00                	add    BYTE PTR [rax],al
   14000823d:	00 00                	add    BYTE PTR [rax],al
	...

0000000140008240 <.idata$4>:
   140008240:	66 86 00             	data16 xchg BYTE PTR [rax],al
   140008243:	00 00                	add    BYTE PTR [rax],al
   140008245:	00 00                	add    BYTE PTR [rax],al
	...

0000000140008248 <.idata$4>:
	...

0000000140008250 <__IAT_start__>:
   140008250:	d8 83 00 00 00 00    	fadd   DWORD PTR [rbx+0x0]
	...

0000000140008258 <__imp_EnterCriticalSection>:
   140008258:	f0 83 00 00          	lock add DWORD PTR [rax],0x0
   14000825c:	00 00                	add    BYTE PTR [rax],al
	...

0000000140008260 <__imp_GetLastError>:
   140008260:	08 84 00 00 00 00 00 	or     BYTE PTR [rax+rax*1+0x0],al
	...

0000000140008268 <__imp_InitializeCriticalSection>:
   140008268:	18 84 00 00 00 00 00 	sbb    BYTE PTR [rax+rax*1+0x0],al
	...

0000000140008270 <__imp_LeaveCriticalSection>:
   140008270:	34 84                	xor    al,0x84
   140008272:	00 00                	add    BYTE PTR [rax],al
   140008274:	00 00                	add    BYTE PTR [rax],al
	...

0000000140008278 <__imp_SetUnhandledExceptionFilter>:
   140008278:	4c 84 00             	rex.WR test BYTE PTR [rax],r8b
   14000827b:	00 00                	add    BYTE PTR [rax],al
   14000827d:	00 00                	add    BYTE PTR [rax],al
	...

0000000140008280 <__imp_Sleep>:
   140008280:	6a 84                	push   0xffffffffffffff84
   140008282:	00 00                	add    BYTE PTR [rax],al
   140008284:	00 00                	add    BYTE PTR [rax],al
	...

0000000140008288 <__imp_TlsGetValue>:
   140008288:	72 84                	jb     14000820e <.idata$4+0x6>
   14000828a:	00 00                	add    BYTE PTR [rax],al
   14000828c:	00 00                	add    BYTE PTR [rax],al
	...

0000000140008290 <__imp_VirtualProtect>:
   140008290:	80 84 00 00 00 00 00 	add    BYTE PTR [rax+rax*1+0x0],0x0
   140008297:	00 

0000000140008298 <__imp_VirtualQuery>:
   140008298:	92                   	xchg   edx,eax
   140008299:	84 00                	test   BYTE PTR [rax],al
   14000829b:	00 00                	add    BYTE PTR [rax],al
   14000829d:	00 00                	add    BYTE PTR [rax],al
	...

00000001400082a0 <.idata$5>:
	...

00000001400082a8 <__imp___p__environ>:
   1400082a8:	a2 84 00 00 00 00 00 	movabs ds:0x84,al
   1400082af:	00  

00000001400082b0 <.idata$5>:
	...

00000001400082b8 <__imp__set_new_mode>:
   1400082b8:	b2 84                	mov    dl,0x84
   1400082ba:	00 00                	add    BYTE PTR [rax],al
   1400082bc:	00 00                	add    BYTE PTR [rax],al
	...

00000001400082c0 <__imp_calloc>:
   1400082c0:	c2 84 00             	ret    0x84
   1400082c3:	00 00                	add    BYTE PTR [rax],al
   1400082c5:	00 00                	add    BYTE PTR [rax],al
	...

00000001400082c8 <__imp_free>:
   1400082c8:	cc                   	int3
   1400082c9:	84 00                	test   BYTE PTR [rax],al
   1400082cb:	00 00                	add    BYTE PTR [rax],al
   1400082cd:	00 00                	add    BYTE PTR [rax],al
	...

00000001400082d0 <__imp_malloc>:
   1400082d0:	d4                   	(bad)
   1400082d1:	84 00                	test   BYTE PTR [rax],al
   1400082d3:	00 00                	add    BYTE PTR [rax],al
   1400082d5:	00 00                	add    BYTE PTR [rax],al
	...

00000001400082d8 <.idata$5>:
	...

00000001400082e0 <__imp__configthreadlocale>:
   1400082e0:	de 84 00 00 00 00 00 	fiadd  WORD PTR [rax+rax*1+0x0]
	...

00000001400082e8 <.idata$5>:
	...

00000001400082f0 <__imp___setusermatherr>:
   1400082f0:	f4                   	hlt
   1400082f1:	84 00                	test   BYTE PTR [rax],al
   1400082f3:	00 00                	add    BYTE PTR [rax],al
   1400082f5:	00 00                	add    BYTE PTR [rax],al
	...

00000001400082f8 <__imp_lround>:
   1400082f8:	08 85 00 00 00 00    	or     BYTE PTR [rbp+0x0],al
	...

0000000140008300 <.idata$5>:
	...

0000000140008308 <__imp___C_specific_handler>:
   140008308:	12 85 00 00 00 00    	adc    al,BYTE PTR [rbp+0x0]
	...

0000000140008310 <__imp_memcpy>:
   140008310:	2a 85 00 00 00 00    	sub    al,BYTE PTR [rbp+0x0]
	...

0000000140008318 <.idata$5>:
	...

0000000140008320 <__imp___p___argc>:
   140008320:	34 85                	xor    al,0x85
   140008322:	00 00                	add    BYTE PTR [rax],al
   140008324:	00 00                	add    BYTE PTR [rax],al
	...

0000000140008328 <__imp___p___argv>:
   140008328:	42 85 00             	rex.X test DWORD PTR [rax],eax
   14000832b:	00 00                	add    BYTE PTR [rax],al
   14000832d:	00 00                	add    BYTE PTR [rax],al
	...

0000000140008330 <__imp__cexit>:
   140008330:	50                   	push   rax
   140008331:	85 00                	test   DWORD PTR [rax],eax
   140008333:	00 00                	add    BYTE PTR [rax],al
   140008335:	00 00                	add    BYTE PTR [rax],al
	...

0000000140008338 <__imp__configure_narrow_argv>:
   140008338:	5a                   	pop    rdx
   140008339:	85 00                	test   DWORD PTR [rax],eax
   14000833b:	00 00                	add    BYTE PTR [rax],al
   14000833d:	00 00                	add    BYTE PTR [rax],al
	...

0000000140008340 <__imp__crt_atexit>:
   140008340:	74 85                	je     1400082c7 <__imp_calloc+0x7>
   140008342:	00 00                	add    BYTE PTR [rax],al
   140008344:	00 00                	add    BYTE PTR [rax],al
	...

0000000140008348 <__imp__exit>:
   140008348:	82                   	(bad)
   140008349:	85 00                	test   DWORD PTR [rax],eax
   14000834b:	00 00                	add    BYTE PTR [rax],al
   14000834d:	00 00                	add    BYTE PTR [rax],al
	...

0000000140008350 <__imp__initialize_narrow_environment>:
   140008350:	8a 85 00 00 00 00    	mov    al,BYTE PTR [rbp+0x0]
	...

0000000140008358 <__imp___set_app_type>:
   140008358:	ac                   	lods   al,BYTE PTR [rsi]
   140008359:	85 00                	test   DWORD PTR [rax],eax
   14000835b:	00 00                	add    BYTE PTR [rax],al
   14000835d:	00 00                	add    BYTE PTR [rax],al
	...

0000000140008360 <__imp__initterm>:
   140008360:	bc 85 00 00 00       	mov    esp,0x85
   140008365:	00 00                	add    BYTE PTR [rax],al
	...

0000000140008368 <__imp__initterm_e>:
   140008368:	c8 85 00 00          	enter  0x85,0x0
   14000836c:	00 00                	add    BYTE PTR [rax],al
	...

0000000140008370 <__imp__set_invalid_parameter_handler>:
   140008370:	d6                   	(bad)
   140008371:	85 00                	test   DWORD PTR [rax],eax
   140008373:	00 00                	add    BYTE PTR [rax],al
   140008375:	00 00                	add    BYTE PTR [rax],al
	...

0000000140008378 <__imp_abort>:
   140008378:	f8                   	clc
   140008379:	85 00                	test   DWORD PTR [rax],eax
   14000837b:	00 00                	add    BYTE PTR [rax],al
   14000837d:	00 00                	add    BYTE PTR [rax],al
	...

0000000140008380 <__imp_exit>:
   140008380:	00 86 00 00 00 00    	add    BYTE PTR [rsi+0x0],al
	...

0000000140008388 <__imp_signal>:
   140008388:	08 86 00 00 00 00    	or     BYTE PTR [rsi+0x0],al
	...

0000000140008390 <.idata$5>:
	...

0000000140008398 <__imp___acrt_iob_func>:
   140008398:	12 86 00 00 00 00    	adc    al,BYTE PTR [rsi+0x0]
	...

00000001400083a0 <__imp___p__commode>:
   1400083a0:	24 86                	and    al,0x86
   1400083a2:	00 00                	add    BYTE PTR [rax],al
   1400083a4:	00 00                	add    BYTE PTR [rax],al
	...

00000001400083a8 <__imp___p__fmode>:
   1400083a8:	34 86                	xor    al,0x86
   1400083aa:	00 00                	add    BYTE PTR [rax],al
   1400083ac:	00 00                	add    BYTE PTR [rax],al
	...

00000001400083b0 <__imp___stdio_common_vfprintf>:
   1400083b0:	42 86 00             	rex.X xchg BYTE PTR [rax],al
   1400083b3:	00 00                	add    BYTE PTR [rax],al
   1400083b5:	00 00                	add    BYTE PTR [rax],al
	...

00000001400083b8 <.idata$5>:
	...

00000001400083c0 <__imp_strlen>:
   1400083c0:	5c                   	pop    rsp
   1400083c1:	86 00                	xchg   BYTE PTR [rax],al
   1400083c3:	00 00                	add    BYTE PTR [rax],al
   1400083c5:	00 00                	add    BYTE PTR [rax],al
	...

00000001400083c8 <__imp_strncmp>:
   1400083c8:	66 86 00             	data16 xchg BYTE PTR [rax],al
   1400083cb:	00 00                	add    BYTE PTR [rax],al
   1400083cd:	00 00                	add    BYTE PTR [rax],al
	...

00000001400083d0 <.idata$5>:
	...

00000001400083d8 <__IAT_end__>:
   1400083d8:	27                   	(bad)
   1400083d9:	01 44 65 6c          	add    DWORD PTR [rbp+riz*2+0x6c],eax
   1400083dd:	65 74 65             	gs je  140008445 <.idata$6+0x11>
   1400083e0:	43 72 69             	rex.XB jb 14000844c <.idata$6>
   1400083e3:	74 69                	je     14000844e <.idata$6+0x2>
   1400083e5:	63 61 6c             	movsxd esp,DWORD PTR [rcx+0x6c]
   1400083e8:	53                   	push   rbx
   1400083e9:	65 63 74 69 6f       	movsxd esi,DWORD PTR gs:[rcx+rbp*2+0x6f]
   1400083ee:	6e                   	outs   dx,BYTE PTR [rsi]
	...

00000001400083f0 <.idata$6>:
   1400083f0:	4d 01 45 6e          	add    QWORD PTR [r13+0x6e],r8
   1400083f4:	74 65                	je     14000845b <.idata$6+0xf>
   1400083f6:	72 43                	jb     14000843b <.idata$6+0x7>
   1400083f8:	72 69                	jb     140008463 <.idata$6+0x17>
   1400083fa:	74 69                	je     140008465 <.idata$6+0x19>
   1400083fc:	63 61 6c             	movsxd esp,DWORD PTR [rcx+0x6c]
   1400083ff:	53                   	push   rbx
   140008400:	65 63 74 69 6f       	movsxd esi,DWORD PTR gs:[rcx+rbp*2+0x6f]
   140008405:	6e                   	outs   dx,BYTE PTR [rsi]
	...

0000000140008408 <.idata$6>:
   140008408:	88 02                	mov    BYTE PTR [rdx],al
   14000840a:	47                   	rex.RXB
   14000840b:	65 74 4c             	gs je  14000845a <.idata$6+0xe>
   14000840e:	61                   	(bad)
   14000840f:	73 74                	jae    140008485 <.idata$6+0x5>
   140008411:	45 72 72             	rex.RB jb 140008486 <.idata$6+0x6>
   140008414:	6f                   	outs   dx,DWORD PTR [rsi]
   140008415:	72 00                	jb     140008417 <.idata$6+0xf>
	...

0000000140008418 <.idata$6>:
   140008418:	96                   	xchg   esi,eax
   140008419:	03 49 6e             	add    ecx,DWORD PTR [rcx+0x6e]
   14000841c:	69 74 69 61 6c 69 7a 	imul   esi,DWORD PTR [rcx+rbp*2+0x61],0x657a696c
   140008423:	65 
   140008424:	43 72 69             	rex.XB jb 140008490 <.idata$6+0x10>
   140008427:	74 69                	je     140008492 <.idata$6>
   140008429:	63 61 6c             	movsxd esp,DWORD PTR [rcx+0x6c]
   14000842c:	53                   	push   rbx
   14000842d:	65 63 74 69 6f       	movsxd esi,DWORD PTR gs:[rcx+rbp*2+0x6f]
   140008432:	6e                   	outs   dx,BYTE PTR [rsi]
	...

0000000140008434 <.idata$6>:
   140008434:	f4                   	hlt
   140008435:	03 4c 65 61          	add    ecx,DWORD PTR [rbp+riz*2+0x61]
   140008439:	76 65                	jbe    1400084a0 <.idata$6+0xe>
   14000843b:	43 72 69             	rex.XB jb 1400084a7 <.idata$6+0x5>
   14000843e:	74 69                	je     1400084a9 <.idata$6+0x7>
   140008440:	63 61 6c             	movsxd esp,DWORD PTR [rcx+0x6c]
   140008443:	53                   	push   rbx
   140008444:	65 63 74 69 6f       	movsxd esi,DWORD PTR gs:[rcx+rbp*2+0x6f]
   140008449:	6e                   	outs   dx,BYTE PTR [rsi]
	...

000000014000844c <.idata$6>:
   14000844c:	99                   	cdq
   14000844d:	05 53 65 74 55       	add    eax,0x55746553
   140008452:	6e                   	outs   dx,BYTE PTR [rsi]
   140008453:	68 61 6e 64 6c       	push   0x6c646e61
   140008458:	65 64 45 78 63       	gs fs rex.RB js 1400084c0 <.idata$6+0xe>
   14000845d:	65 70 74             	gs jo  1400084d4 <.idata$6>
   140008460:	69 6f 6e 46 69 6c 74 	imul   ebp,DWORD PTR [rdi+0x6e],0x746c6946
   140008467:	65 72 00             	gs jb  14000846a <.idata$6>

000000014000846a <.idata$6>:
   14000846a:	a9 05 53 6c 65       	test   eax,0x656c5305
   14000846f:	65 70 00             	gs jo  140008472 <.idata$6>

0000000140008472 <.idata$6>:
   140008472:	cd 05                	int    0x5
   140008474:	54                   	push   rsp
   140008475:	6c                   	ins    BYTE PTR [rdi],dx
   140008476:	73 47                	jae    1400084bf <.idata$6+0xd>
   140008478:	65 74 56             	gs je  1400084d1 <.idata$6+0x5>
   14000847b:	61                   	(bad)
   14000847c:	6c                   	ins    BYTE PTR [rdi],dx
   14000847d:	75 65                	jne    1400084e4 <.idata$6+0x6>
	...

0000000140008480 <.idata$6>:
   140008480:	fd                   	std
   140008481:	05 56 69 72 74       	add    eax,0x74726956
   140008486:	75 61                	jne    1400084e9 <.idata$6+0xb>
   140008488:	6c                   	ins    BYTE PTR [rdi],dx
   140008489:	50                   	push   rax
   14000848a:	72 6f                	jb     1400084fb <.idata$6+0x7>
   14000848c:	74 65                	je     1400084f3 <.idata$6+0x15>
   14000848e:	63 74 00 00          	movsxd esi,DWORD PTR [rax+rax*1+0x0]

0000000140008492 <.idata$6>:
   140008492:	ff 05 56 69 72 74    	inc    DWORD PTR [rip+0x74726956]        # 1b472edee <.debug_rnglists+0x7470bd38>
   140008498:	75 61                	jne    1400084fb <.idata$6+0x7>
   14000849a:	6c                   	ins    BYTE PTR [rdi],dx
   14000849b:	51                   	push   rcx
   14000849c:	75 65                	jne    140008503 <.idata$6+0xf>
   14000849e:	72 79                	jb     140008519 <.idata$6+0x7>
	...

00000001400084a2 <.idata$6>:
   1400084a2:	00 00                	add    BYTE PTR [rax],al
   1400084a4:	5f                   	pop    rdi
   1400084a5:	5f                   	pop    rdi
   1400084a6:	70 5f                	jo     140008507 <.idata$6+0x13>
   1400084a8:	5f                   	pop    rdi
   1400084a9:	65 6e                	outs   dx,BYTE PTR gs:[rsi]
   1400084ab:	76 69                	jbe    140008516 <.idata$6+0x4>
   1400084ad:	72 6f                	jb     14000851e <.idata$6+0xc>
   1400084af:	6e                   	outs   dx,BYTE PTR [rsi]
	...

00000001400084b2 <.idata$6>:
   1400084b2:	17                   	(bad)
   1400084b3:	00 5f 73             	add    BYTE PTR [rdi+0x73],bl
   1400084b6:	65 74 5f             	gs je  140008518 <.idata$6+0x6>
   1400084b9:	6e                   	outs   dx,BYTE PTR [rsi]
   1400084ba:	65 77 5f             	gs ja  14000851c <.idata$6+0xa>
   1400084bd:	6d                   	ins    DWORD PTR [rdi],dx
   1400084be:	6f                   	outs   dx,DWORD PTR [rsi]
   1400084bf:	64 65 00           	fs add BYTE PTR gs:[rax],bl

00000001400084c2 <.idata$6>:
   1400084c2:	18 00                	sbb    BYTE PTR [rax],al
   1400084c4:	63 61 6c             	movsxd esp,DWORD PTR [rcx+0x6c]
   1400084c7:	6c                   	ins    BYTE PTR [rdi],dx
   1400084c8:	6f                   	outs   dx,DWORD PTR [rsi]
   1400084c9:	63 00                	movsxd eax,DWORD PTR [rax]
	...

00000001400084cc <.idata$6>:
   1400084cc:	19 00                	sbb    DWORD PTR [rax],eax
   1400084ce:	66 72 65             	data16 jb 140008536 <.idata$6+0x2>
   1400084d1:	65 00 00             	add    BYTE PTR gs:[rax],al

00000001400084d4 <.idata$6>:
   1400084d4:	1a 00                	sbb    al,BYTE PTR [rax]
   1400084d6:	6d                   	ins    DWORD PTR [rdi],dx
   1400084d7:	61                   	(bad)
   1400084d8:	6c                   	ins    BYTE PTR [rdi],dx
   1400084d9:	6c                   	ins    BYTE PTR [rdi],dx
   1400084da:	6f                   	outs   dx,DWORD PTR [rsi]
   1400084db:	63 00                	movsxd eax,DWORD PTR [rax]
	...

00000001400084de <.idata$6>:
   1400084de:	09 00                	or     DWORD PTR [rax],eax
   1400084e0:	5f                   	pop    rdi
   1400084e1:	63 6f 6e             	movsxd ebp,DWORD PTR [rdi+0x6e]
   1400084e4:	66 69 67 74 68 72    	imul   sp,WORD PTR [rdi+0x74],0x7268
   1400084ea:	65 61                	gs (bad)
   1400084ec:	64 6c                	fs ins BYTE PTR [rdi],dx
   1400084ee:	6f                   	outs   dx,DWORD PTR [rsi]
   1400084ef:	63 61 6c             	movsxd esp,DWORD PTR [rcx+0x6c]
   1400084f2:	65 00              	add    BYTE PTR gs:[rcx],cl

00000001400084f4 <.idata$6>:
   1400084f4:	09 00                	or     DWORD PTR [rax],eax
   1400084f6:	5f                   	pop    rdi
   1400084f7:	5f                   	pop    rdi
   1400084f8:	73 65                	jae    14000855f <.idata$6+0x5>
   1400084fa:	74 75                	je     140008571 <.idata$6+0x17>
   1400084fc:	73 65                	jae    140008563 <.idata$6+0x9>
   1400084fe:	72 6d                	jb     14000856d <.idata$6+0x13>
   140008500:	61                   	(bad)
   140008501:	74 68                	je     14000856b <.idata$6+0x11>
   140008503:	65 72 72             	gs jb  140008578 <.idata$6+0x4>
	...

0000000140008508 <.idata$6>:
   140008508:	c8 00 6c 72          	enter  0x6c00,0x72
   14000850c:	6f                   	outs   dx,DWORD PTR [rsi]
   14000850d:	75 6e                	jne    14000857d <.idata$6+0x9>
   14000850f:	64 00 00             	add    BYTE PTR fs:[rax],al

0000000140008512 <.idata$6>:
   140008512:	0c 00                	or     al,0x0
   140008514:	5f                   	pop    rdi
   140008515:	5f                   	pop    rdi
   140008516:	43 5f                	rex.XB pop r15
   140008518:	73 70                	jae    14000858a <.idata$6>
   14000851a:	65 63 69 66          	movsxd ebp,DWORD PTR gs:[rcx+0x66]
   14000851e:	69 63 5f 68 61 6e 64 	imul   esp,DWORD PTR [rbx+0x5f],0x646e6168
   140008525:	6c                   	ins    BYTE PTR [rdi],dx
   140008526:	65 72 00             	gs jb  140008529 <.idata$6+0x17>
	...

000000014000852a <.idata$6>:
   14000852a:	40 04 6d             	rex add al,0x6d
   14000852d:	65 6d                	gs ins DWORD PTR [rdi],dx
   14000852f:	63 70 79             	movsxd esi,DWORD PTR [rax+0x79]
	...

0000000140008534 <.idata$6>:
   140008534:	04 00                	add    al,0x0
   140008536:	5f                   	pop    rdi
   140008537:	5f                   	pop    rdi
   140008538:	70 5f                	jo     140008599 <.idata$6+0xf>
   14000853a:	5f                   	pop    rdi
   14000853b:	5f                   	pop    rdi
   14000853c:	61                   	(bad)
   14000853d:	72 67                	jb     1400085a6 <.idata$6+0x1c>
   14000853f:	63 00                	movsxd eax,DWORD PTR [rax]
	...

0000000140008542 <.idata$6>:
   140008542:	05 00 5f 5f 70       	add    eax,0x705f5f00
   140008547:	5f                   	pop    rdi
   140008548:	5f                   	pop    rdi
   140008549:	5f                   	pop    rdi
   14000854a:	61                   	(bad)
   14000854b:	72 67                	jb     1400085b4 <.idata$6+0x8>
   14000854d:	76 00                	jbe    14000854f <.idata$6+0xd>
	...

0000000140008550 <.idata$6>:
   140008550:	16                   	(bad)
   140008551:	00 5f 63             	add    BYTE PTR [rdi+0x63],bl
   140008554:	65 78 69             	gs js  1400085c0 <.idata$6+0x4>
   140008557:	74 00                	je     140008559 <.idata$6+0x9>
	...

000000014000855a <.idata$6>:
   14000855a:	18 00                	sbb    BYTE PTR [rax],al
   14000855c:	5f                   	pop    rdi
   14000855d:	63 6f 6e             	movsxd ebp,DWORD PTR [rdi+0x6e]
   140008560:	66 69 67 75 72 65    	imul   sp,WORD PTR [rdi+0x75],0x6572
   140008566:	5f                   	pop    rdi
   140008567:	6e                   	outs   dx,BYTE PTR [rsi]
   140008568:	61                   	(bad)
   140008569:	72 72                	jb     1400085dd <.idata$6+0x7>
   14000856b:	6f                   	outs   dx,DWORD PTR [rsi]
   14000856c:	77 5f                	ja     1400085cd <.idata$6+0x5>
   14000856e:	61                   	(bad)
   14000856f:	72 67                	jb     1400085d8 <.idata$6+0x2>
   140008571:	76 00                	jbe    140008573 <.idata$6+0x19>
	...

0000000140008574 <.idata$6>:
   140008574:	1e                   	(bad)
   140008575:	00 5f 63             	add    BYTE PTR [rdi+0x63],bl
   140008578:	72 74                	jb     1400085ee <.idata$6+0x18>
   14000857a:	5f                   	pop    rdi
   14000857b:	61                   	(bad)
   14000857c:	74 65                	je     1400085e3 <.idata$6+0xd>
   14000857e:	78 69                	js     1400085e9 <.idata$6+0x13>
   140008580:	74 00                	je     140008582 <.idata$6>

0000000140008582 <.idata$6>:
   140008582:	23 00                	and    eax,DWORD PTR [rax]
   140008584:	5f                   	pop    rdi
   140008585:	65 78 69             	gs js  1400085f1 <.idata$6+0x1b>
   140008588:	74 00                	je     14000858a <.idata$6>

000000014000858a <.idata$6>:
   14000858a:	33 00                	xor    eax,DWORD PTR [rax]
   14000858c:	5f                   	pop    rdi
   14000858d:	69 6e 69 74 69 61 6c 	imul   ebp,DWORD PTR [rsi+0x69],0x6c616974
   140008594:	69 7a 65 5f 6e 61 72 	imul   edi,DWORD PTR [rdx+0x65],0x72616e5f
   14000859b:	72 6f                	jb     14000860c <.idata$6+0x4>
   14000859d:	77 5f                	ja     1400085fe <.idata$6+0x6>
   14000859f:	65 6e                	outs   dx,BYTE PTR gs:[rsi]
   1400085a1:	76 69                	jbe    14000860c <.idata$6+0x4>
   1400085a3:	72 6f                	jb     140008614 <.idata$6+0x2>
   1400085a5:	6e                   	outs   dx,BYTE PTR [rsi]
   1400085a6:	6d                   	ins    DWORD PTR [rdi],dx
   1400085a7:	65 6e                	outs   dx,BYTE PTR gs:[rsi]
   1400085a9:	74 00                	je     1400085ab <.idata$6+0x21>
	...

00000001400085ac <.idata$6>:
   1400085ac:	36 00 5f 73          	ss add BYTE PTR [rdi+0x73],bl
   1400085b0:	65 74 5f             	gs je  140008612 <.idata$6>
   1400085b3:	61                   	(bad)
   1400085b4:	70 70                	jo     140008626 <.idata$6+0x2>
   1400085b6:	5f                   	pop    rdi
   1400085b7:	74 79                	je     140008632 <.idata$6+0xe>
   1400085b9:	70 65                	jo     140008620 <.idata$6+0xe>
	...

00000001400085bc <.idata$6>:
   1400085bc:	38 00                	cmp    BYTE PTR [rax],al
   1400085be:	5f                   	pop    rdi
   1400085bf:	69 6e 69 74 74 65 72 	imul   ebp,DWORD PTR [rsi+0x69],0x72657474
   1400085c6:	6d                   	ins    DWORD PTR [rdi],dx
	...

00000001400085c8 <.idata$6>:
   1400085c8:	39 00                	cmp    DWORD PTR [rax],eax
   1400085ca:	5f                   	pop    rdi
   1400085cb:	69 6e 69 74 74 65 72 	imul   ebp,DWORD PTR [rsi+0x69],0x72657474
   1400085d2:	6d                   	ins    DWORD PTR [rdi],dx
   1400085d3:	5f                   	pop    rdi
   1400085d4:	65 00            	add    BYTE PTR gs:[rcx+0x0],cl

00000001400085d6 <.idata$6>:
   1400085d6:	49 00 5f 73          	rex.WB add BYTE PTR [r15+0x73],bl
   1400085da:	65 74 5f             	gs je  14000863c <.idata$6+0x8>
   1400085dd:	69 6e 76 61 6c 69 64 	imul   ebp,DWORD PTR [rsi+0x76],0x64696c61
   1400085e4:	5f                   	pop    rdi
   1400085e5:	70 61                	jo     140008648 <.idata$6+0x6>
   1400085e7:	72 61                	jb     14000864a <.idata$6+0x8>
   1400085e9:	6d                   	ins    DWORD PTR [rdi],dx
   1400085ea:	65 74 65             	gs je  140008652 <.idata$6+0x10>
   1400085ed:	72 5f                	jb     14000864e <.idata$6+0xc>
   1400085ef:	68 61 6e 64 6c       	push   0x6c646e61
   1400085f4:	65 72 00             	gs jb  1400085f7 <.idata$6+0x21>
	...

00000001400085f8 <.idata$6>:
   1400085f8:	56                   	push   rsi
   1400085f9:	00 61 62             	add    BYTE PTR [rcx+0x62],ah
   1400085fc:	6f                   	outs   dx,DWORD PTR [rsi]
   1400085fd:	72 74                	jb     140008673 <.idata$7+0x3>
	...

0000000140008600 <.idata$6>:
   140008600:	57                   	push   rdi
   140008601:	00 65 78             	add    BYTE PTR [rbp+0x78],ah
   140008604:	69 74 00 00    	imul   esi,DWORD PTR [rax+rax*1+0x0],0x69730065
   14000860b:	 

0000000140008608 <.idata$6>:
   140008608:	65 00 73 69          	add    BYTE PTR gs:[rbx+0x69],dh
   14000860c:	67 6e                	outs   dx,BYTE PTR [esi]
   14000860e:	61                   	(bad)
   14000860f:	6c                   	ins    BYTE PTR [rdi],dx
	...

0000000140008612 <.idata$6>:
   140008612:	00 00                	add    BYTE PTR [rax],al
   140008614:	5f                   	pop    rdi
   140008615:	5f                   	pop    rdi
   140008616:	61                   	(bad)
   140008617:	63 72 74             	movsxd esi,DWORD PTR [rdx+0x74]
   14000861a:	5f                   	pop    rdi
   14000861b:	69 6f 62 5f 66 75 6e 	imul   ebp,DWORD PTR [rdi+0x62],0x6e75665f
   140008622:	63 00                	movsxd eax,DWORD PTR [rax]

0000000140008624 <.idata$6>:
   140008624:	01 00                	add    DWORD PTR [rax],eax
   140008626:	5f                   	pop    rdi
   140008627:	5f                   	pop    rdi
   140008628:	70 5f                	jo     140008689 <.idata$7+0x1>
   14000862a:	5f                   	pop    rdi
   14000862b:	63 6f 6d             	movsxd ebp,DWORD PTR [rdi+0x6d]
   14000862e:	6d                   	ins    DWORD PTR [rdi],dx
   14000862f:	6f                   	outs   dx,DWORD PTR [rsi]
   140008630:	64 65 00 00          	fs add BYTE PTR gs:[rax],al

0000000140008634 <.idata$6>:
   140008634:	02 00                	add    al,BYTE PTR [rax]
   140008636:	5f                   	pop    rdi
   140008637:	5f                   	pop    rdi
   140008638:	70 5f                	jo     140008699 <__lib64_libkernel32_a_iname+0x1>
   14000863a:	5f                   	pop    rdi
   14000863b:	66 6d                	ins    WORD PTR [rdi],dx
   14000863d:	6f                   	outs   dx,DWORD PTR [rsi]
   14000863e:	64 65 00 00          	fs add BYTE PTR gs:[rax],al

0000000140008642 <.idata$6>:
   140008642:	03 00                	add    eax,DWORD PTR [rax]
   140008644:	5f                   	pop    rdi
   140008645:	5f                   	pop    rdi
   140008646:	73 74                	jae    1400086bc <__lib64_libapi_ms_win_crt_environment_l1_1_0_a_iname+0x10>
   140008648:	64 69 6f 5f 63 6f 6d 	imul   ebp,DWORD PTR fs:[rdi+0x5f],0x6d6d6f63
   14000864f:	6d 
   140008650:	6f                   	outs   dx,DWORD PTR [rsi]
   140008651:	6e                   	outs   dx,BYTE PTR [rsi]
   140008652:	5f                   	pop    rdi
   140008653:	76 66                	jbe    1400086bb <__lib64_libapi_ms_win_crt_environment_l1_1_0_a_iname+0xf>
   140008655:	70 72                	jo     1400086c9 <__lib64_libapi_ms_win_crt_environment_l1_1_0_a_iname+0x1d>
   140008657:	69 6e 74 66 00   	imul   ebp,DWORD PTR [rsi+0x74],0xa70066

000000014000865c <.idata$6>:
   14000865c:	a7                   	cmps   DWORD PTR [rsi],DWORD PTR [rdi]
   14000865d:	00 73 74             	add    BYTE PTR [rbx+0x74],dh
   140008660:	72 6c                	jb     1400086ce <__lib64_libapi_ms_win_crt_environment_l1_1_0_a_iname+0x22>
   140008662:	65 6e                	outs   dx,BYTE PTR gs:[rsi]
	...

0000000140008666 <.idata$6>:
   140008666:	aa                   	stos   BYTE PTR [rdi],al
   140008667:	00 73 74             	add    BYTE PTR [rbx+0x74],dh
   14000866a:	72 6e                	jb     1400086da <.idata$7+0x2>
   14000866c:	63 6d 70             	movsxd ebp,DWORD PTR [rbp+0x70]
	...

0000000140008670 <.idata$7>:
   140008670:	00 80 00 00      	add    BYTE PTR [rax-0x80000000],al

0000000140008674 <.idata$7>:
   140008674:	00 80 00 00      	add    BYTE PTR [rax-0x80000000],al

0000000140008678 <.idata$7>:
   140008678:	00 80 00 00      	add    BYTE PTR [rax-0x80000000],al

000000014000867c <.idata$7>:
   14000867c:	00 80 00 00      	add    BYTE PTR [rax-0x80000000],al

0000000140008680 <.idata$7>:
   140008680:	00 80 00 00      	add    BYTE PTR [rax-0x80000000],al

0000000140008684 <.idata$7>:
